Component: ARM Compiler 5.06 update 7 (build 960) Tool: armlink [4d3601]

==============================================================================

Section Cross References

    startup_stm32f072.o(RESET) refers to startup_stm32f072.o(STACK) for __initial_sp
    startup_stm32f072.o(RESET) refers to startup_stm32f072.o(.text) for Reset_Handler
    startup_stm32f072.o(RESET) refers to port.o(i.SVC_Handler) for SVC_Handler
    startup_stm32f072.o(RESET) refers to port.o(.emb_text) for PendSV_Handler
    startup_stm32f072.o(RESET) refers to port.o(i.SysTick_Handler) for SysTick_Handler
    startup_stm32f072.o(RESET) refers to spi.o(i.EXTI2_3_IRQHandler) for EXTI2_3_IRQHandler
    startup_stm32f072.o(RESET) refers to uart_3.o(i.DMA1_Channel2_3_IRQHandler) for DMA1_Channel2_3_IRQHandler
    startup_stm32f072.o(RESET) refers to universal_init.o(i.TIM2_IRQHandler) for TIM2_IRQHandler
    startup_stm32f072.o(.text) refers to system_stm32f0xx.o(i.SystemInit) for SystemInit
    startup_stm32f072.o(.text) refers to entry.o(.ARM.Collect$$$$00000000) for __main
    stm32f0xx_dac.o(i.DAC_DeInit) refers to stm32f0xx_rcc.o(i.RCC_APB1PeriphResetCmd) for RCC_APB1PeriphResetCmd
    stm32f0xx_flash.o(i.FLASH_EraseAllPages) refers to stm32f0xx_flash.o(i.FLASH_WaitForLastOperation) for FLASH_WaitForLastOperation
    stm32f0xx_flash.o(i.FLASH_ErasePage) refers to stm32f0xx_flash.o(i.FLASH_WaitForLastOperation) for FLASH_WaitForLastOperation
    stm32f0xx_flash.o(i.FLASH_ErasePage) refers to stm32f0xx_flash.o(.data) for temp_address
    stm32f0xx_flash.o(i.FLASH_OB_BOOT0Config) refers to stm32f0xx_flash.o(i.FLASH_WaitForLastOperation) for FLASH_WaitForLastOperation
    stm32f0xx_flash.o(i.FLASH_OB_BOOT0SWConfig) refers to stm32f0xx_flash.o(i.FLASH_WaitForLastOperation) for FLASH_WaitForLastOperation
    stm32f0xx_flash.o(i.FLASH_OB_BOOTConfig) refers to stm32f0xx_flash.o(i.FLASH_WaitForLastOperation) for FLASH_WaitForLastOperation
    stm32f0xx_flash.o(i.FLASH_OB_EnableWRP) refers to stm32f0xx_flash.o(i.FLASH_WaitForLastOperation) for FLASH_WaitForLastOperation
    stm32f0xx_flash.o(i.FLASH_OB_Erase) refers to stm32f0xx_flash.o(i.FLASH_OB_GetRDP) for FLASH_OB_GetRDP
    stm32f0xx_flash.o(i.FLASH_OB_Erase) refers to stm32f0xx_flash.o(i.FLASH_WaitForLastOperation) for FLASH_WaitForLastOperation
    stm32f0xx_flash.o(i.FLASH_OB_ProgramData) refers to stm32f0xx_flash.o(i.FLASH_WaitForLastOperation) for FLASH_WaitForLastOperation
    stm32f0xx_flash.o(i.FLASH_OB_RDPConfig) refers to stm32f0xx_flash.o(i.FLASH_WaitForLastOperation) for FLASH_WaitForLastOperation
    stm32f0xx_flash.o(i.FLASH_OB_SRAMParityConfig) refers to stm32f0xx_flash.o(i.FLASH_WaitForLastOperation) for FLASH_WaitForLastOperation
    stm32f0xx_flash.o(i.FLASH_OB_UserConfig) refers to stm32f0xx_flash.o(i.FLASH_WaitForLastOperation) for FLASH_WaitForLastOperation
    stm32f0xx_flash.o(i.FLASH_OB_VDDAConfig) refers to stm32f0xx_flash.o(i.FLASH_WaitForLastOperation) for FLASH_WaitForLastOperation
    stm32f0xx_flash.o(i.FLASH_OB_WriteUser) refers to stm32f0xx_flash.o(i.FLASH_WaitForLastOperation) for FLASH_WaitForLastOperation
    stm32f0xx_flash.o(i.FLASH_ProgramHalfWord) refers to stm32f0xx_flash.o(i.FLASH_WaitForLastOperation) for FLASH_WaitForLastOperation
    stm32f0xx_flash.o(i.FLASH_ProgramWord) refers to stm32f0xx_flash.o(i.FLASH_WaitForLastOperation) for FLASH_WaitForLastOperation
    stm32f0xx_flash.o(i.FLASH_ProgramWord) refers to stm32f0xx_flash.o(.data) for temp_Address
    stm32f0xx_flash.o(i.FLASH_WaitForLastOperation) refers to stm32f0xx_flash.o(i.FLASH_GetStatus) for FLASH_GetStatus
    stm32f0xx_gpio.o(i.GPIO_DeInit) refers to stm32f0xx_rcc.o(i.RCC_AHBPeriphResetCmd) for RCC_AHBPeriphResetCmd
    stm32f0xx_i2c.o(i.I2C_DeInit) refers to stm32f0xx_rcc.o(i.RCC_APB1PeriphResetCmd) for RCC_APB1PeriphResetCmd
    stm32f0xx_pwr.o(i.PWR_DeInit) refers to stm32f0xx_rcc.o(i.RCC_APB1PeriphResetCmd) for RCC_APB1PeriphResetCmd
    stm32f0xx_rcc.o(i.RCC_GetClocksFreq) refers to uidiv.o(.text) for __aeabi_uidivmod
    stm32f0xx_rcc.o(i.RCC_GetClocksFreq) refers to stm32f0xx_rcc.o(.data) for APBAHBPrescTable
    stm32f0xx_rcc.o(i.RCC_WaitForHSEStartUp) refers to stm32f0xx_rcc.o(i.RCC_GetFlagStatus) for RCC_GetFlagStatus
    stm32f0xx_rtc.o(i.RTC_DeInit) refers to stm32f0xx_rtc.o(i.RTC_EnterInitMode) for RTC_EnterInitMode
    stm32f0xx_rtc.o(i.RTC_DeInit) refers to stm32f0xx_rtc.o(i.RTC_WaitForSynchro) for RTC_WaitForSynchro
    stm32f0xx_rtc.o(i.RTC_GetAlarm) refers to stm32f0xx_rtc.o(i.RTC_Bcd2ToByte) for RTC_Bcd2ToByte
    stm32f0xx_rtc.o(i.RTC_GetDate) refers to stm32f0xx_rtc.o(i.RTC_Bcd2ToByte) for RTC_Bcd2ToByte
    stm32f0xx_rtc.o(i.RTC_GetTime) refers to stm32f0xx_rtc.o(i.RTC_Bcd2ToByte) for RTC_Bcd2ToByte
    stm32f0xx_rtc.o(i.RTC_GetTimeStamp) refers to stm32f0xx_rtc.o(i.RTC_Bcd2ToByte) for RTC_Bcd2ToByte
    stm32f0xx_rtc.o(i.RTC_Init) refers to stm32f0xx_rtc.o(i.RTC_EnterInitMode) for RTC_EnterInitMode
    stm32f0xx_rtc.o(i.RTC_Init) refers to stm32f0xx_rtc.o(i.RTC_ExitInitMode) for RTC_ExitInitMode
    stm32f0xx_rtc.o(i.RTC_RefClockCmd) refers to stm32f0xx_rtc.o(i.RTC_EnterInitMode) for RTC_EnterInitMode
    stm32f0xx_rtc.o(i.RTC_RefClockCmd) refers to stm32f0xx_rtc.o(i.RTC_ExitInitMode) for RTC_ExitInitMode
    stm32f0xx_rtc.o(i.RTC_SetAlarm) refers to stm32f0xx_rtc.o(i.RTC_Bcd2ToByte) for RTC_Bcd2ToByte
    stm32f0xx_rtc.o(i.RTC_SetAlarm) refers to stm32f0xx_rtc.o(i.RTC_ByteToBcd2) for RTC_ByteToBcd2
    stm32f0xx_rtc.o(i.RTC_SetDate) refers to stm32f0xx_rtc.o(i.RTC_Bcd2ToByte) for RTC_Bcd2ToByte
    stm32f0xx_rtc.o(i.RTC_SetDate) refers to stm32f0xx_rtc.o(i.RTC_ByteToBcd2) for RTC_ByteToBcd2
    stm32f0xx_rtc.o(i.RTC_SetDate) refers to stm32f0xx_rtc.o(i.RTC_EnterInitMode) for RTC_EnterInitMode
    stm32f0xx_rtc.o(i.RTC_SetDate) refers to stm32f0xx_rtc.o(i.RTC_ExitInitMode) for RTC_ExitInitMode
    stm32f0xx_rtc.o(i.RTC_SetDate) refers to stm32f0xx_rtc.o(i.RTC_WaitForSynchro) for RTC_WaitForSynchro
    stm32f0xx_rtc.o(i.RTC_SetTime) refers to stm32f0xx_rtc.o(i.RTC_Bcd2ToByte) for RTC_Bcd2ToByte
    stm32f0xx_rtc.o(i.RTC_SetTime) refers to stm32f0xx_rtc.o(i.RTC_ByteToBcd2) for RTC_ByteToBcd2
    stm32f0xx_rtc.o(i.RTC_SetTime) refers to stm32f0xx_rtc.o(i.RTC_EnterInitMode) for RTC_EnterInitMode
    stm32f0xx_rtc.o(i.RTC_SetTime) refers to stm32f0xx_rtc.o(i.RTC_ExitInitMode) for RTC_ExitInitMode
    stm32f0xx_rtc.o(i.RTC_SetTime) refers to stm32f0xx_rtc.o(i.RTC_WaitForSynchro) for RTC_WaitForSynchro
    stm32f0xx_rtc.o(i.RTC_SynchroShiftConfig) refers to stm32f0xx_rtc.o(i.RTC_WaitForSynchro) for RTC_WaitForSynchro
    stm32f0xx_spi.o(i.I2S_Init) refers to stm32f0xx_rcc.o(i.RCC_GetClocksFreq) for RCC_GetClocksFreq
    stm32f0xx_spi.o(i.I2S_Init) refers to uidiv.o(.text) for __aeabi_uidivmod
    stm32f0xx_spi.o(i.SPI_I2S_DeInit) refers to stm32f0xx_rcc.o(i.RCC_APB2PeriphResetCmd) for RCC_APB2PeriphResetCmd
    stm32f0xx_spi.o(i.SPI_I2S_DeInit) refers to stm32f0xx_rcc.o(i.RCC_APB1PeriphResetCmd) for RCC_APB1PeriphResetCmd
    stm32f0xx_tim.o(i.TIM_DeInit) refers to stm32f0xx_rcc.o(i.RCC_APB2PeriphResetCmd) for RCC_APB2PeriphResetCmd
    stm32f0xx_tim.o(i.TIM_DeInit) refers to stm32f0xx_rcc.o(i.RCC_APB1PeriphResetCmd) for RCC_APB1PeriphResetCmd
    stm32f0xx_tim.o(i.TIM_ETRClockMode1Config) refers to stm32f0xx_tim.o(i.TIM_ETRConfig) for TIM_ETRConfig
    stm32f0xx_tim.o(i.TIM_ETRClockMode2Config) refers to stm32f0xx_tim.o(i.TIM_ETRConfig) for TIM_ETRConfig
    stm32f0xx_tim.o(i.TIM_ICInit) refers to stm32f0xx_tim.o(i.TI1_Config) for TI1_Config
    stm32f0xx_tim.o(i.TIM_ICInit) refers to stm32f0xx_tim.o(i.TIM_SetIC1Prescaler) for TIM_SetIC1Prescaler
    stm32f0xx_tim.o(i.TIM_ICInit) refers to stm32f0xx_tim.o(i.TI2_Config) for TI2_Config
    stm32f0xx_tim.o(i.TIM_ICInit) refers to stm32f0xx_tim.o(i.TIM_SetIC2Prescaler) for TIM_SetIC2Prescaler
    stm32f0xx_tim.o(i.TIM_ICInit) refers to stm32f0xx_tim.o(i.TI3_Config) for TI3_Config
    stm32f0xx_tim.o(i.TIM_ICInit) refers to stm32f0xx_tim.o(i.TIM_SetIC3Prescaler) for TIM_SetIC3Prescaler
    stm32f0xx_tim.o(i.TIM_ICInit) refers to stm32f0xx_tim.o(i.TI4_Config) for TI4_Config
    stm32f0xx_tim.o(i.TIM_ICInit) refers to stm32f0xx_tim.o(i.TIM_SetIC4Prescaler) for TIM_SetIC4Prescaler
    stm32f0xx_tim.o(i.TIM_ITRxExternalClockConfig) refers to stm32f0xx_tim.o(i.TIM_SelectInputTrigger) for TIM_SelectInputTrigger
    stm32f0xx_tim.o(i.TIM_PWMIConfig) refers to stm32f0xx_tim.o(i.TI1_Config) for TI1_Config
    stm32f0xx_tim.o(i.TIM_PWMIConfig) refers to stm32f0xx_tim.o(i.TIM_SetIC1Prescaler) for TIM_SetIC1Prescaler
    stm32f0xx_tim.o(i.TIM_PWMIConfig) refers to stm32f0xx_tim.o(i.TI2_Config) for TI2_Config
    stm32f0xx_tim.o(i.TIM_PWMIConfig) refers to stm32f0xx_tim.o(i.TIM_SetIC2Prescaler) for TIM_SetIC2Prescaler
    stm32f0xx_tim.o(i.TIM_TIxExternalClockConfig) refers to stm32f0xx_tim.o(i.TI2_Config) for TI2_Config
    stm32f0xx_tim.o(i.TIM_TIxExternalClockConfig) refers to stm32f0xx_tim.o(i.TI1_Config) for TI1_Config
    stm32f0xx_tim.o(i.TIM_TIxExternalClockConfig) refers to stm32f0xx_tim.o(i.TIM_SelectInputTrigger) for TIM_SelectInputTrigger
    stm32f0xx_wwdg.o(i.WWDG_DeInit) refers to stm32f0xx_rcc.o(i.RCC_APB1PeriphResetCmd) for RCC_APB1PeriphResetCmd
    stm32f0xx_adc.o(i.ADC_DeInit) refers to stm32f0xx_rcc.o(i.RCC_APB2PeriphResetCmd) for RCC_APB2PeriphResetCmd
    stm32f0xx_can.o(i.CAN_DeInit) refers to stm32f0xx_rcc.o(i.RCC_APB1PeriphResetCmd) for RCC_APB1PeriphResetCmd
    stm32f0xx_can.o(i.CAN_GetITStatus) refers to stm32f0xx_can.o(i.CheckITStatus) for CheckITStatus
    stm32f0xx_cec.o(i.CEC_DeInit) refers to stm32f0xx_rcc.o(i.RCC_APB1PeriphResetCmd) for RCC_APB1PeriphResetCmd
    stm32f0xx_crs.o(i.CRS_DeInit) refers to stm32f0xx_rcc.o(i.RCC_APB1PeriphResetCmd) for RCC_APB1PeriphResetCmd
    stm32f0xx_usart.o(i.USART_DeInit) refers to stm32f0xx_rcc.o(i.RCC_APB2PeriphResetCmd) for RCC_APB2PeriphResetCmd
    stm32f0xx_usart.o(i.USART_DeInit) refers to stm32f0xx_rcc.o(i.RCC_APB1PeriphResetCmd) for RCC_APB1PeriphResetCmd
    stm32f0xx_usart.o(i.USART_Init) refers to stm32f0xx_rcc.o(i.RCC_GetClocksFreq) for RCC_GetClocksFreq
    stm32f0xx_usart.o(i.USART_Init) refers to uidiv.o(.text) for __aeabi_uidivmod
    system_stm32f0xx.o(i.SystemCoreClockUpdate) refers to uidiv.o(.text) for __aeabi_uidivmod
    system_stm32f0xx.o(i.SystemCoreClockUpdate) refers to system_stm32f0xx.o(.data) for SystemCoreClock
    main.o(i.main) refers to system_config.o(i.SystemCoreClockConfigure) for SystemCoreClockConfigure
    main.o(i.main) refers to system_stm32f0xx.o(i.SystemCoreClockUpdate) for SystemCoreClockUpdate
    main.o(i.main) refers to system_config.o(i.Variables_Init) for Variables_Init
    main.o(i.main) refers to system_config.o(i.InitAllPeripherals) for InitAllPeripherals
    main.o(i.main) refers to tasks.o(i.xTaskCreate) for xTaskCreate
    main.o(i.main) refers to tasks.o(i.vTaskStartScheduler) for vTaskStartScheduler
    main.o(i.main) refers to main.o(.data) for StartTask_Handler
    main.o(i.main) refers to main.o(i.start_task) for start_task
    main.o(i.start_task) refers to port.o(i.vPortEnterCritical) for vPortEnterCritical
    main.o(i.start_task) refers to queue.o(i.xQueueGenericCreate) for xQueueGenericCreate
    main.o(i.start_task) refers to tasks.o(i.xTaskCreate) for xTaskCreate
    main.o(i.start_task) refers to tasks.o(i.vTaskDelete) for vTaskDelete
    main.o(i.start_task) refers to port.o(i.vPortExitCritical) for vPortExitCritical
    main.o(i.start_task) refers to user_com_task.o(.data) for COM1_Message_Queue
    main.o(i.start_task) refers to main.o(.data) for Task1Task_Handler
    main.o(i.start_task) refers to dis_task.o(i.Display_Task) for Display_Task
    main.o(i.start_task) refers to control_task.o(i.Control_Task) for Control_Task
    main.o(i.start_task) refers to user_com_task.o(i.COM1_Task) for COM1_Task
    system_config.o(i.ClearErrorByte) refers to variable.o(.data) for g_ErrorByte
    system_config.o(i.InitAllPeripherals) refers to stm32f0xx_rcc.o(i.RCC_APB2PeriphClockCmd) for RCC_APB2PeriphClockCmd
    system_config.o(i.InitAllPeripherals) refers to memcpya.o(.text) for __aeabi_memcpy4
    system_config.o(i.InitAllPeripherals) refers to stm32f0xx_syscfg.o(i.SYSCFG_MemoryRemapConfig) for SYSCFG_MemoryRemapConfig
    system_config.o(i.InitAllPeripherals) refers to iap.o(i.IAP_Init) for IAP_Init
    system_config.o(i.InitAllPeripherals) refers to system_config.o(i.NVIC_Configuration) for NVIC_Configuration
    system_config.o(i.InitAllPeripherals) refers to system_config.o(i.Peripherals_Clock_Init) for Peripherals_Clock_Init
    system_config.o(i.InitAllPeripherals) refers to system_config.o(i.delay_init) for delay_init
    system_config.o(i.InitAllPeripherals) refers to universal_init.o(i.Handle_Timer_Init) for Handle_Timer_Init
    system_config.o(i.InitAllPeripherals) refers to led_others.o(i.RGB_Time_Init) for RGB_Time_Init
    system_config.o(i.InitAllPeripherals) refers to ambient_light_app.o(i.Ambient_light_Start) for Ambient_light_Start
    system_config.o(i.InitAllPeripherals) refers to universal_init.o(i.Timer2Init) for Timer2Init
    system_config.o(i.InitAllPeripherals) refers to iic.o(i.IIC_Init) for IIC_Init
    system_config.o(i.InitAllPeripherals) refers to uart_3.o(i.UART3_Int) for UART3_Int
    system_config.o(i.InitAllPeripherals) refers to universal_init.o(i.ADC_Int) for ADC_Int
    system_config.o(i.InitAllPeripherals) refers to gpio.o(i.gpioInitialize) for gpioInitialize
    system_config.o(i.InitAllPeripherals) refers to spi.o(i.SPI1_Configuration) for SPI1_Configuration
    system_config.o(i.InitAllPeripherals) refers to fm175xx.o(i.FM175XX_HardReset) for FM175XX_HardReset
    system_config.o(i.InitAllPeripherals) refers to reader_api.o(i.Lpcd_Calibration_Event) for Lpcd_Calibration_Event
    system_config.o(i.InitAllPeripherals) refers to reader_api.o(i.Lpcd_Calibration_Backup) for Lpcd_Calibration_Backup
    system_config.o(i.InitAllPeripherals) refers to reader_api.o(i.Lpcd_Set_Mode) for Lpcd_Set_Mode
    system_config.o(i.InitAllPeripherals) refers to spi.o(i.EXTI_Config) for EXTI_Config
    system_config.o(i.InitAllPeripherals) refers to system_config.o(.data) for First_in_flage
    system_config.o(i.InitAllPeripherals) refers to ambient_light_app.o(.bss) for Ambient_light_object
    system_config.o(i.NVIC_Configuration) refers to stm32f0xx_misc.o(i.NVIC_Init) for NVIC_Init
    system_config.o(i.Peripherals_Clock_Init) refers to stm32f0xx_rcc.o(i.RCC_AHBPeriphClockCmd) for RCC_AHBPeriphClockCmd
    system_config.o(i.Peripherals_Clock_Init) refers to stm32f0xx_rcc.o(i.RCC_APB2PeriphClockCmd) for RCC_APB2PeriphClockCmd
    system_config.o(i.Peripherals_Clock_Init) refers to stm32f0xx_rcc.o(i.RCC_APB1PeriphClockCmd) for RCC_APB1PeriphClockCmd
    system_config.o(i.ReadUniqueID) refers to variable.o(.bss) for g_myself_data
    system_config.o(i.SaveFDatamap) refers to system_config.o(i.Disable_Interrupt) for Disable_Interrupt
    system_config.o(i.SaveFDatamap) refers to flash.o(i.Flash_Prepared) for Flash_Prepared
    system_config.o(i.SaveFDatamap) refers to memcpya.o(.text) for __aeabi_memcpy
    system_config.o(i.SaveFDatamap) refers to flash.o(i.Flash_Write) for Flash_Write
    system_config.o(i.SaveFDatamap) refers to system_config.o(i.Enable_Interrupt) for Enable_Interrupt
    system_config.o(i.SaveFDatamap) refers to variable.o(.bss) for g_NBCmdMap
    system_config.o(i.SetErrorByte) refers to variable.o(.data) for g_ErrorByte
    system_config.o(i.Variables_Init) refers to memseta.o(.text) for __aeabi_memclr
    system_config.o(i.Variables_Init) refers to flash.o(i.Flash_Read) for Flash_Read
    system_config.o(i.Variables_Init) refers to memcpya.o(.text) for __aeabi_memcpy
    system_config.o(i.Variables_Init) refers to system_config.o(i.ReadUniqueID) for ReadUniqueID
    system_config.o(i.Variables_Init) refers to ambient_light_app.o(i.Ambient_Light_Malloc_Init) for Ambient_Light_Malloc_Init
    system_config.o(i.Variables_Init) refers to variable.o(.bss) for g_bool
    system_config.o(i.Variables_Init) refers to reader_api.o(.data) for NFC_set
    system_config.o(i.Variables_Init) refers to ambient_light_app.o(.bss) for Ambient_light_object
    system_config.o(i.delay_init) refers to stm32f0xx_misc.o(i.SysTick_CLKSourceConfig) for SysTick_CLKSourceConfig
    system_config.o(i.delay_init) refers to uidiv.o(.text) for __aeabi_uidivmod
    system_config.o(i.delay_init) refers to system_stm32f0xx.o(.data) for SystemCoreClock
    system_config.o(i.delay_init) refers to system_config.o(.data) for fac_us
    system_config.o(i.delay_ms) refers to tasks.o(i.xTaskGetSchedulerState) for xTaskGetSchedulerState
    system_config.o(i.delay_ms) refers to idiv.o(.text) for __aeabi_idivmod
    system_config.o(i.delay_ms) refers to tasks.o(i.vTaskDelay) for vTaskDelay
    system_config.o(i.delay_ms) refers to system_config.o(i.delay_us) for delay_us
    system_config.o(i.delay_ms) refers to system_config.o(.data) for fac_ms
    system_config.o(i.delay_us) refers to system_config.o(.data) for fac_us
    universal_init.o(i.ADCDMAConfiguration) refers to stm32f0xx_dma.o(i.DMA_DeInit) for DMA_DeInit
    universal_init.o(i.ADCDMAConfiguration) refers to stm32f0xx_dma.o(i.DMA_Init) for DMA_Init
    universal_init.o(i.ADCDMAConfiguration) refers to stm32f0xx_dma.o(i.DMA_Cmd) for DMA_Cmd
    universal_init.o(i.ADCDMAConfiguration) refers to universal_init.o(.bss) for m_ADCValue
    universal_init.o(i.ADC_Get_ConversionValue) refers to universal_init.o(.bss) for m_ADCValue
    universal_init.o(i.ADC_Int) refers to stm32f0xx_gpio.o(i.GPIO_StructInit) for GPIO_StructInit
    universal_init.o(i.ADC_Int) refers to stm32f0xx_gpio.o(i.GPIO_Init) for GPIO_Init
    universal_init.o(i.ADC_Int) refers to stm32f0xx_adc.o(i.ADC_DeInit) for ADC_DeInit
    universal_init.o(i.ADC_Int) refers to stm32f0xx_rcc.o(i.RCC_ADCCLKConfig) for RCC_ADCCLKConfig
    universal_init.o(i.ADC_Int) refers to universal_init.o(i.ADCDMAConfiguration) for ADCDMAConfiguration
    universal_init.o(i.ADC_Int) refers to stm32f0xx_adc.o(i.ADC_DMARequestModeConfig) for ADC_DMARequestModeConfig
    universal_init.o(i.ADC_Int) refers to stm32f0xx_adc.o(i.ADC_StructInit) for ADC_StructInit
    universal_init.o(i.ADC_Int) refers to stm32f0xx_adc.o(i.ADC_Init) for ADC_Init
    universal_init.o(i.ADC_Int) refers to stm32f0xx_adc.o(i.ADC_ChannelConfig) for ADC_ChannelConfig
    universal_init.o(i.ADC_Int) refers to stm32f0xx_adc.o(i.ADC_GetCalibrationFactor) for ADC_GetCalibrationFactor
    universal_init.o(i.ADC_Int) refers to stm32f0xx_adc.o(i.ADC_DMACmd) for ADC_DMACmd
    universal_init.o(i.ADC_Int) refers to stm32f0xx_adc.o(i.ADC_Cmd) for ADC_Cmd
    universal_init.o(i.ADC_Int) refers to stm32f0xx_adc.o(i.ADC_GetFlagStatus) for ADC_GetFlagStatus
    universal_init.o(i.ADC_Int) refers to stm32f0xx_adc.o(i.ADC_StartOfConversion) for ADC_StartOfConversion
    universal_init.o(i.Ambient_Timer_Init) refers to stm32f0xx_gpio.o(i.GPIO_Init) for GPIO_Init
    universal_init.o(i.Ambient_Timer_Init) refers to stm32f0xx_tim.o(i.TIM_DeInit) for TIM_DeInit
    universal_init.o(i.Ambient_Timer_Init) refers to stm32f0xx_tim.o(i.TIM_TimeBaseStructInit) for TIM_TimeBaseStructInit
    universal_init.o(i.Ambient_Timer_Init) refers to stm32f0xx_tim.o(i.TIM_TimeBaseInit) for TIM_TimeBaseInit
    universal_init.o(i.Ambient_Timer_Init) refers to stm32f0xx_tim.o(i.TIM_ITConfig) for TIM_ITConfig
    universal_init.o(i.Ambient_Timer_Init) refers to stm32f0xx_tim.o(i.TIM_OCStructInit) for TIM_OCStructInit
    universal_init.o(i.Ambient_Timer_Init) refers to stm32f0xx_tim.o(i.TIM_OC1Init) for TIM_OC1Init
    universal_init.o(i.Ambient_Timer_Init) refers to stm32f0xx_tim.o(i.TIM_OC2Init) for TIM_OC2Init
    universal_init.o(i.Ambient_Timer_Init) refers to stm32f0xx_tim.o(i.TIM_OC3Init) for TIM_OC3Init
    universal_init.o(i.Ambient_Timer_Init) refers to stm32f0xx_tim.o(i.TIM_CtrlPWMOutputs) for TIM_CtrlPWMOutputs
    universal_init.o(i.Ambient_Timer_Init) refers to stm32f0xx_tim.o(i.TIM_OC1PreloadConfig) for TIM_OC1PreloadConfig
    universal_init.o(i.Ambient_Timer_Init) refers to stm32f0xx_tim.o(i.TIM_OC2PreloadConfig) for TIM_OC2PreloadConfig
    universal_init.o(i.Ambient_Timer_Init) refers to stm32f0xx_tim.o(i.TIM_OC3PreloadConfig) for TIM_OC3PreloadConfig
    universal_init.o(i.Ambient_Timer_Init) refers to stm32f0xx_tim.o(i.TIM_ARRPreloadConfig) for TIM_ARRPreloadConfig
    universal_init.o(i.Ambient_Timer_Init) refers to stm32f0xx_tim.o(i.TIM_Cmd) for TIM_Cmd
    universal_init.o(i.Get_RealVaule) refers to universal_init.o(i.ADC_Get_ConversionValue) for ADC_Get_ConversionValue
    universal_init.o(i.Get_RealVaule) refers to idiv.o(.text) for __aeabi_idivmod
    universal_init.o(i.Get_RealVaule) refers to variable.o(.bss) for g_myself_data
    universal_init.o(i.Get_RealVaule) refers to variable.o(.data) for g_wireless_charger_vol
    universal_init.o(i.Handle_Temp_OFF) refers to stm32f0xx_tim.o(i.TIM_SetCompare1) for TIM_SetCompare1
    universal_init.o(i.Handle_Temp_ON) refers to stm32f0xx_tim.o(i.TIM_SetCompare1) for TIM_SetCompare1
    universal_init.o(i.Handle_Temp_Set) refers to idiv.o(.text) for __aeabi_idivmod
    universal_init.o(i.Handle_Temp_Set) refers to stm32f0xx_tim.o(i.TIM_SetCompare1) for TIM_SetCompare1
    universal_init.o(i.Handle_Timer_Init) refers to stm32f0xx_gpio.o(i.GPIO_Init) for GPIO_Init
    universal_init.o(i.Handle_Timer_Init) refers to stm32f0xx_gpio.o(i.GPIO_PinAFConfig) for GPIO_PinAFConfig
    universal_init.o(i.Handle_Timer_Init) refers to stm32f0xx_tim.o(i.TIM_DeInit) for TIM_DeInit
    universal_init.o(i.Handle_Timer_Init) refers to stm32f0xx_tim.o(i.TIM_TimeBaseStructInit) for TIM_TimeBaseStructInit
    universal_init.o(i.Handle_Timer_Init) refers to stm32f0xx_tim.o(i.TIM_TimeBaseInit) for TIM_TimeBaseInit
    universal_init.o(i.Handle_Timer_Init) refers to stm32f0xx_tim.o(i.TIM_OCStructInit) for TIM_OCStructInit
    universal_init.o(i.Handle_Timer_Init) refers to stm32f0xx_tim.o(i.TIM_OC1Init) for TIM_OC1Init
    universal_init.o(i.Handle_Timer_Init) refers to stm32f0xx_tim.o(i.TIM_CtrlPWMOutputs) for TIM_CtrlPWMOutputs
    universal_init.o(i.Handle_Timer_Init) refers to stm32f0xx_tim.o(i.TIM_Cmd) for TIM_Cmd
    universal_init.o(i.TIM2_IRQHandler) refers to stm32f0xx_tim.o(i.TIM_GetITStatus) for TIM_GetITStatus
    universal_init.o(i.TIM2_IRQHandler) refers to stm32f0xx_tim.o(i.TIM_ClearITPendingBit) for TIM_ClearITPendingBit
    universal_init.o(i.TIM2_IRQHandler) refers to iic.o(i.IicProcess) for IicProcess
    universal_init.o(i.Timer2Init) refers to stm32f0xx_tim.o(i.TIM_TimeBaseInit) for TIM_TimeBaseInit
    universal_init.o(i.Timer2Init) refers to stm32f0xx_tim.o(i.TIM_ClearFlag) for TIM_ClearFlag
    universal_init.o(i.Timer2Init) refers to stm32f0xx_tim.o(i.TIM_ITConfig) for TIM_ITConfig
    universal_init.o(i.Timer2Init) refers to stm32f0xx_tim.o(i.TIM_Cmd) for TIM_Cmd
    gpio.o(i.gpioGetInput) refers to stm32f0xx_gpio.o(i.GPIO_ReadInputDataBit) for GPIO_ReadInputDataBit
    gpio.o(i.gpioGetInput) refers to gpio.o(.data) for gpioPin
    gpio.o(i.gpioGetOutput) refers to stm32f0xx_gpio.o(i.GPIO_ReadOutputDataBit) for GPIO_ReadOutputDataBit
    gpio.o(i.gpioGetOutput) refers to gpio.o(.data) for gpioPin
    gpio.o(i.gpioInitialize) refers to stm32f0xx_gpio.o(i.GPIO_Init) for GPIO_Init
    gpio.o(i.gpioInitialize) refers to gpio.o(.data) for gpioPin
    gpio.o(i.gpioSetOutput) refers to stm32f0xx_gpio.o(i.GPIO_SetBits) for GPIO_SetBits
    gpio.o(i.gpioSetOutput) refers to stm32f0xx_gpio.o(i.GPIO_ResetBits) for GPIO_ResetBits
    gpio.o(i.gpioSetOutput) refers to gpio.o(.data) for gpioPin
    gpio.o(i.gpioSetToggle) refers to gpio.o(.data) for gpioPin
    parseframe.o(i.FormatFrame) refers to parseframe.o(i.CheckSum) for CheckSum
    parseframe.o(i.ParseFrame) refers to parseframe.o(i.PushMiniFrame) for PushMiniFrame
    parseframe.o(i.ParseFrame) refers to memcpya.o(.text) for __aeabi_memcpy
    parseframe.o(i.ParseFrame) refers to idiv.o(.text) for __aeabi_idivmod
    parseframe.o(i.ParseFrame) refers to iap.o(i.IAP_ParseFrame) for IAP_ParseFrame
    parseframe.o(i.ParseFrame) refers to variable.o(.bss) for g_bool
    parseframe.o(i.ParseFrame) refers to ambient_light_app.o(.bss) for Ambient_light_object
    parseframe.o(i.PushMiniFrame) refers to uart_3.o(i.UART3_PushFrame) for UART3_PushFrame
    user_com_task.o(i.COM1_Task) refers to system_config.o(i.SaveFDatamap) for SaveFDatamap
    user_com_task.o(i.COM1_Task) refers to uart_3.o(i.UART3_CheckSend) for UART3_CheckSend
    user_com_task.o(i.COM1_Task) refers to uart_3.o(i.UART3_CheckReceive) for UART3_CheckReceive
    user_com_task.o(i.COM1_Task) refers to tasks.o(i.vTaskDelay) for vTaskDelay
    user_com_task.o(i.COM1_Task) refers to variable.o(.bss) for g_bool
    user_com_task.o(i.COM1_Task) refers to user_com_task.o(.data) for s_reset_delay
    uart_3.o(i.DMA1_Channel2_3_IRQHandler) refers to stm32f0xx_dma.o(i.DMA_GetITStatus) for DMA_GetITStatus
    uart_3.o(i.DMA1_Channel2_3_IRQHandler) refers to stm32f0xx_dma.o(i.DMA_ClearFlag) for DMA_ClearFlag
    uart_3.o(i.DMA1_Channel2_3_IRQHandler) refers to stm32f0xx_dma.o(i.DMA_ClearITPendingBit) for DMA_ClearITPendingBit
    uart_3.o(i.DMA1_Channel2_3_IRQHandler) refers to uart_3.o(i.UART3_SetPinToRx) for UART3_SetPinToRx
    uart_3.o(i.DMA1_Channel2_3_IRQHandler) refers to uart_3.o(.data) for m_EUART3_TxFrm_Tail
    uart_3.o(i.UART3_CheckReceive) refers to uart_3.o(i.UART3_ParseData) for UART3_ParseData
    uart_3.o(i.UART3_CheckReceive) refers to uart_3.o(.data) for m_bEUART3PushingFrms
    uart_3.o(i.UART3_CheckReceive) refers to uart_3.o(.bss) for m_EUART3_DMA_RXBuf
    uart_3.o(i.UART3_CheckSend) refers to uart_3.o(i.UART3_SetPinToTx) for UART3_SetPinToTx
    uart_3.o(i.UART3_CheckSend) refers to uart_3.o(i.UART3_DmaSend) for UART3_DmaSend
    uart_3.o(i.UART3_CheckSend) refers to uart_3.o(.data) for m_bEUART3PushingFrms
    uart_3.o(i.UART3_CheckSend) refers to uart_3.o(.bss) for m_EUART3_TxFrames
    uart_3.o(i.UART3_DMAConfiguration) refers to stm32f0xx_dma.o(i.DMA_DeInit) for DMA_DeInit
    uart_3.o(i.UART3_DMAConfiguration) refers to stm32f0xx_dma.o(i.DMA_Init) for DMA_Init
    uart_3.o(i.UART3_DMAConfiguration) refers to stm32f0xx_usart.o(i.USART_DMACmd) for USART_DMACmd
    uart_3.o(i.UART3_DMAConfiguration) refers to stm32f0xx_dma.o(i.DMA_Cmd) for DMA_Cmd
    uart_3.o(i.UART3_DMAConfiguration) refers to stm32f0xx_dma.o(i.DMA_ITConfig) for DMA_ITConfig
    uart_3.o(i.UART3_DMAConfiguration) refers to uart_3.o(.bss) for m_EUART3_DMA_RXBuf
    uart_3.o(i.UART3_DmaSend) refers to stm32f0xx_dma.o(i.DMA_Cmd) for DMA_Cmd
    uart_3.o(i.UART3_DmaSend) refers to stm32f0xx_dma.o(i.DMA_SetCurrDataCounter) for DMA_SetCurrDataCounter
    uart_3.o(i.UART3_InitVariables) refers to uart_3.o(.data) for m_EUART3_TxFrm_FreeFrmLen
    uart_3.o(i.UART3_Int) refers to uart_3.o(i.UART3_InitVariables) for UART3_InitVariables
    uart_3.o(i.UART3_Int) refers to stm32f0xx_gpio.o(i.GPIO_PinAFConfig) for GPIO_PinAFConfig
    uart_3.o(i.UART3_Int) refers to stm32f0xx_gpio.o(i.GPIO_Init) for GPIO_Init
    uart_3.o(i.UART3_Int) refers to stm32f0xx_usart.o(i.USART_DeInit) for USART_DeInit
    uart_3.o(i.UART3_Int) refers to stm32f0xx_usart.o(i.USART_Init) for USART_Init
    uart_3.o(i.UART3_Int) refers to stm32f0xx_usart.o(i.USART_HalfDuplexCmd) for USART_HalfDuplexCmd
    uart_3.o(i.UART3_Int) refers to stm32f0xx_usart.o(i.USART_Cmd) for USART_Cmd
    uart_3.o(i.UART3_Int) refers to uart_3.o(i.UART3_SetPinToRx) for UART3_SetPinToRx
    uart_3.o(i.UART3_Int) refers to uart_3.o(i.UART3_DMAConfiguration) for UART3_DMAConfiguration
    uart_3.o(i.UART3_ParseData) refers to parseframe.o(i.ParseFrame) for ParseFrame
    uart_3.o(i.UART3_ParseData) refers to uart_3.o(.data) for s_bBeginFrame
    uart_3.o(i.UART3_ParseData) refers to uart_3.o(.bss) for s_RXBuf
    uart_3.o(i.UART3_PopFrame) refers to uart_3.o(.data) for m_bEUART3PushingFrms
    uart_3.o(i.UART3_PushFrame) refers to parseframe.o(i.FormatFrame) for FormatFrame
    uart_3.o(i.UART3_PushFrame) refers to uart_3.o(.data) for m_bEUART3PushingFrms
    uart_3.o(i.UART3_PushFrame) refers to uart_3.o(.bss) for m_EUART3_TxFrames
    uart_3.o(i.UART3_SetPinToRx) refers to stm32f0xx_gpio.o(i.GPIO_Init) for GPIO_Init
    uart_3.o(i.UART3_SetPinToTx) refers to stm32f0xx_gpio.o(i.GPIO_Init) for GPIO_Init
    dis_task.o(i.Dis_4LED) refers to memseta.o(.text) for __aeabi_memclr4
    dis_task.o(i.Dis_4LED) refers to iic.o(i.IIC_PushFrame) for IIC_PushFrame
    dis_task.o(i.Dis_4LED) refers to memcpya.o(.text) for __aeabi_memcpy
    dis_task.o(i.Dis_4LED) refers to variable.o(.bss) for g_myself_data
    dis_task.o(i.Dis_4LED) refers to dis_task.o(.data) for leftBroknCnt
    dis_task.o(i.Display_Task) refers to dis_task.o(i.Init_Show_Process) for Init_Show_Process
    dis_task.o(i.Display_Task) refers to dis_task.o(i.Dis_4LED) for Dis_4LED
    dis_task.o(i.Display_Task) refers to led_others.o(i.Handle_RGB_Control) for Handle_RGB_Control
    dis_task.o(i.Display_Task) refers to ambient_light_app.o(i.Ambient_Light_Set) for Ambient_Light_Set
    dis_task.o(i.Display_Task) refers to stateupdate.o(i.Check_IAP_Mode) for Check_IAP_Mode
    dis_task.o(i.Display_Task) refers to tasks.o(i.vTaskDelay) for vTaskDelay
    dis_task.o(i.Display_Task) refers to variable.o(.bss) for g_myself_data
    dis_task.o(i.Display_Task) refers to ambient_light_app.o(.bss) for Ambient_light_object
    dis_task.o(i.Display_Task) refers to dis_task.o(.data) for dis_init
    dis_task.o(i.Init_Show_Process) refers to dis_task.o(i.Dis_4LED) for Dis_4LED
    dis_task.o(i.Init_Show_Process) refers to led_others.o(i.PowerON_RGB) for PowerON_RGB
    dis_task.o(i.Init_Show_Process) refers to led_others.o(i.ALL_RGB_OFF) for ALL_RGB_OFF
    dis_task.o(i.Init_Show_Process) refers to dis_task.o(.data) for s_timer_cn
    led_others.o(i.ALL_RGB_OFF) refers to led_others.o(i.RGB_Bit_Set) for RGB_Bit_Set
    led_others.o(i.Ambientlight_breath) refers to idiv.o(.text) for __aeabi_idivmod
    led_others.o(i.Ambientlight_breath) refers to led_others.o(i.RGB_Bit_Set) for RGB_Bit_Set
    led_others.o(i.Ambientlight_breath) refers to led_others.o(.data) for s_cnt
    led_others.o(i.Handle_RGB_Control) refers to led_others.o(i.RGB_Bit_Set) for RGB_Bit_Set
    led_others.o(i.Handle_RGB_Control) refers to idiv.o(.text) for __aeabi_idivmod
    led_others.o(i.Handle_RGB_Control) refers to led_others.o(i.Ambientlight_breath) for Ambientlight_breath
    led_others.o(i.Handle_RGB_Control) refers to led_others.o(i.LED_DMA_Refresh) for LED_DMA_Refresh
    led_others.o(i.Handle_RGB_Control) refers to variable.o(.bss) for g_myself_data
    led_others.o(i.LED_DMA_Refresh) refers to led_others.o(.bss) for m_LED_DMABuff
    led_others.o(i.PowerON_RGB) refers to led_others.o(i.RGB_Bit_Set) for RGB_Bit_Set
    led_others.o(i.PowerON_RGB) refers to led_others.o(i.LED_DMA_Refresh) for LED_DMA_Refresh
    led_others.o(i.PowerON_RGB) refers to led_others.o(.data) for s_cnt
    led_others.o(i.RGB_Bit_Set) refers to led_others.o(.data) for i
    led_others.o(i.RGB_Bit_Set) refers to led_others.o(.bss) for m_LED_DMABuff
    led_others.o(i.RGB_Buff_Init) refers to led_others.o(.bss) for m_LED_DMABuff
    led_others.o(i.RGB_Time_Init) refers to led_others.o(i.RGB_Buff_Init) for RGB_Buff_Init
    led_others.o(i.RGB_Time_Init) refers to stm32f0xx_gpio.o(i.GPIO_PinAFConfig) for GPIO_PinAFConfig
    led_others.o(i.RGB_Time_Init) refers to stm32f0xx_gpio.o(i.GPIO_Init) for GPIO_Init
    led_others.o(i.RGB_Time_Init) refers to stm32f0xx_dma.o(i.DMA_DeInit) for DMA_DeInit
    led_others.o(i.RGB_Time_Init) refers to stm32f0xx_dma.o(i.DMA_StructInit) for DMA_StructInit
    led_others.o(i.RGB_Time_Init) refers to stm32f0xx_dma.o(i.DMA_Init) for DMA_Init
    led_others.o(i.RGB_Time_Init) refers to stm32f0xx_tim.o(i.TIM_DeInit) for TIM_DeInit
    led_others.o(i.RGB_Time_Init) refers to stm32f0xx_tim.o(i.TIM_TimeBaseStructInit) for TIM_TimeBaseStructInit
    led_others.o(i.RGB_Time_Init) refers to stm32f0xx_tim.o(i.TIM_TimeBaseInit) for TIM_TimeBaseInit
    led_others.o(i.RGB_Time_Init) refers to stm32f0xx_tim.o(i.TIM_OCStructInit) for TIM_OCStructInit
    led_others.o(i.RGB_Time_Init) refers to stm32f0xx_tim.o(i.TIM_OC3Init) for TIM_OC3Init
    led_others.o(i.RGB_Time_Init) refers to stm32f0xx_tim.o(i.TIM_OC3PreloadConfig) for TIM_OC3PreloadConfig
    led_others.o(i.RGB_Time_Init) refers to stm32f0xx_tim.o(i.TIM_ARRPreloadConfig) for TIM_ARRPreloadConfig
    led_others.o(i.RGB_Time_Init) refers to stm32f0xx_tim.o(i.TIM_DMACmd) for TIM_DMACmd
    led_others.o(i.RGB_Time_Init) refers to stm32f0xx_tim.o(i.TIM_Cmd) for TIM_Cmd
    led_others.o(i.RGB_Time_Init) refers to stm32f0xx_tim.o(i.TIM_CtrlPWMOutputs) for TIM_CtrlPWMOutputs
    led_others.o(i.RGB_Time_Init) refers to led_others.o(.bss) for m_LED_DMABuff
    ambient_light_app.o(i.Ambient_Light_ALL_Pro) refers to idiv.o(.text) for __aeabi_idivmod
    ambient_light_app.o(i.Ambient_Light_ALL_Pro) refers to uidiv.o(.text) for __aeabi_uidivmod
    ambient_light_app.o(i.Ambient_Light_ALL_Pro) refers to ambient_light_app.o(.data) for s_period_cnt
    ambient_light_app.o(i.Ambient_Light_Breathe_Pro) refers to idiv.o(.text) for __aeabi_idivmod
    ambient_light_app.o(i.Ambient_Light_Breathe_Pro) refers to uidiv.o(.text) for __aeabi_uidivmod
    ambient_light_app.o(i.Ambient_Light_Breathe_Pro) refers to ambient_light_app.o(.data) for s_period_cnt
    ambient_light_app.o(i.Ambient_Light_Changliang) refers to uidiv.o(.text) for __aeabi_uidivmod
    ambient_light_app.o(i.Ambient_Light_Changliang) refers to variable.o(.bss) for g_myself_data
    ambient_light_app.o(i.Ambient_Light_Malloc_Init) refers to memseta.o(.text) for __aeabi_memclr4
    ambient_light_app.o(i.Ambient_Light_Malloc_Init) refers to variable.o(.bss) for g_myself_data
    ambient_light_app.o(i.Ambient_Light_Malloc_Init) refers to universal_init.o(i.Ambient_Timer_Init) for Ambient_Timer_Init
    ambient_light_app.o(i.Ambient_Light_Set) refers to ambient_light_app.o(i.Ambient_ClearColor) for Ambient_ClearColor
    ambient_light_app.o(i.Ambient_Light_Set) refers to ambient_light_app.o(i.Ambient_Light_Changliang) for Ambient_Light_Changliang
    ambient_light_app.o(i.Ambient_Light_Set) refers to ambient_light_app.o(i.Ambient_Light_Breathe_Pro) for Ambient_Light_Breathe_Pro
    ambient_light_app.o(i.Ambient_Light_Set) refers to ambient_light_app.o(i.Ambient_Light_ALL_Pro) for Ambient_Light_ALL_Pro
    ambient_light_app.o(i.Ambient_Light_Set) refers to ambient_light_app.o(i.Ambient_Timer_Cmp_Update) for Ambient_Timer_Cmp_Update
    ambient_light_app.o(i.Ambient_Light_Set) refers to variable.o(.bss) for g_myself_data
    ambient_light_app.o(i.Ambient_Light_Set) refers to ambient_light_app.o(.bss) for Ambient_light_object
    ambient_light_app.o(i.Ambient_Timer_Cmp_Update) refers to stm32f0xx_tim.o(i.TIM_SetCompare1) for TIM_SetCompare1
    ambient_light_app.o(i.Ambient_Timer_Cmp_Update) refers to stm32f0xx_tim.o(i.TIM_SetCompare2) for TIM_SetCompare2
    ambient_light_app.o(i.Ambient_Timer_Cmp_Update) refers to stm32f0xx_tim.o(i.TIM_SetCompare3) for TIM_SetCompare3
    iic.o(i.IIC_Ack) refers to stm32f0xx_gpio.o(i.GPIO_ResetBits) for GPIO_ResetBits
    iic.o(i.IIC_Ack) refers to stm32f0xx_gpio.o(i.GPIO_SetBits) for GPIO_SetBits
    iic.o(i.IIC_Init) refers to stm32f0xx_gpio.o(i.GPIO_Init) for GPIO_Init
    iic.o(i.IIC_Init) refers to stm32f0xx_gpio.o(i.GPIO_SetBits) for GPIO_SetBits
    iic.o(i.IIC_NAck) refers to stm32f0xx_gpio.o(i.GPIO_ResetBits) for GPIO_ResetBits
    iic.o(i.IIC_NAck) refers to stm32f0xx_gpio.o(i.GPIO_SetBits) for GPIO_SetBits
    iic.o(i.IIC_PushFrame) refers to memcpya.o(.text) for __aeabi_memcpy
    iic.o(i.IIC_PushFrame) refers to iic.o(.bss) for iic_t
    iic.o(i.IIC_RED_Bytes) refers to iic.o(i.__ARM_common_switch8) for __ARM_common_switch8
    iic.o(i.IIC_RED_Bytes) refers to iic.o(i.IIC_Start) for IIC_Start
    iic.o(i.IIC_RED_Bytes) refers to iic.o(i.IIC_Send_Byte) for IIC_Send_Byte
    iic.o(i.IIC_RED_Bytes) refers to iic.o(i.IIC_Wait_Ack) for IIC_Wait_Ack
    iic.o(i.IIC_RED_Bytes) refers to iic.o(i.IIC_NAck) for IIC_NAck
    iic.o(i.IIC_RED_Bytes) refers to iic.o(i.IIC_Ack) for IIC_Ack
    iic.o(i.IIC_RED_Bytes) refers to iic.o(i.IIC_Read_Byte) for IIC_Read_Byte
    iic.o(i.IIC_RED_Bytes) refers to iic.o(i.IIC_Stop) for IIC_Stop
    iic.o(i.IIC_RED_Bytes) refers to iic.o(.data) for s_uData_num
    iic.o(i.IIC_Read_Byte) refers to stm32f0xx_gpio.o(i.GPIO_ResetBits) for GPIO_ResetBits
    iic.o(i.IIC_Read_Byte) refers to stm32f0xx_gpio.o(i.GPIO_SetBits) for GPIO_SetBits
    iic.o(i.IIC_Read_Byte) refers to iic.o(.data) for s_uCount
    iic.o(i.IIC_Send_Byte) refers to stm32f0xx_gpio.o(i.GPIO_ResetBits) for GPIO_ResetBits
    iic.o(i.IIC_Send_Byte) refers to stm32f0xx_gpio.o(i.GPIO_SetBits) for GPIO_SetBits
    iic.o(i.IIC_Send_Byte) refers to iic.o(.data) for s_uCount
    iic.o(i.IIC_Send_Bytes) refers to iic.o(i.__ARM_common_switch8) for __ARM_common_switch8
    iic.o(i.IIC_Send_Bytes) refers to iic.o(i.IIC_Start) for IIC_Start
    iic.o(i.IIC_Send_Bytes) refers to iic.o(i.IIC_Send_Byte) for IIC_Send_Byte
    iic.o(i.IIC_Send_Bytes) refers to iic.o(i.IIC_Wait_Ack) for IIC_Wait_Ack
    iic.o(i.IIC_Send_Bytes) refers to iic.o(i.IIC_Stop) for IIC_Stop
    iic.o(i.IIC_Send_Bytes) refers to iic.o(.data) for s_uData_num
    iic.o(i.IIC_Send_Command) refers to iic.o(i.IIC_Start) for IIC_Start
    iic.o(i.IIC_Send_Command) refers to iic.o(i.IIC_Wait_Ack) for IIC_Wait_Ack
    iic.o(i.IIC_Send_Command) refers to iic.o(i.IIC_Send_Byte) for IIC_Send_Byte
    iic.o(i.IIC_Send_Command) refers to iic.o(i.IIC_Stop) for IIC_Stop
    iic.o(i.IIC_Start) refers to stm32f0xx_gpio.o(i.GPIO_SetBits) for GPIO_SetBits
    iic.o(i.IIC_Start) refers to stm32f0xx_gpio.o(i.GPIO_ResetBits) for GPIO_ResetBits
    iic.o(i.IIC_Start) refers to iic.o(.bss) for iic_t
    iic.o(i.IIC_Stop) refers to stm32f0xx_gpio.o(i.GPIO_ResetBits) for GPIO_ResetBits
    iic.o(i.IIC_Stop) refers to stm32f0xx_gpio.o(i.GPIO_SetBits) for GPIO_SetBits
    iic.o(i.IIC_Wait_Ack) refers to stm32f0xx_gpio.o(i.GPIO_SetBits) for GPIO_SetBits
    iic.o(i.IIC_Wait_Ack) refers to stm32f0xx_gpio.o(i.GPIO_ResetBits) for GPIO_ResetBits
    iic.o(i.IIC_Wait_Ack) refers to iic.o(.data) for timeout
    iic.o(i.IicGetAppStatus) refers to iic.o(.bss) for iic_t
    iic.o(i.IicProcess) refers to iic.o(i.IIC_Send_Bytes) for IIC_Send_Bytes
    iic.o(i.IicProcess) refers to iic.o(i.IIC_Send_Command) for IIC_Send_Command
    iic.o(i.IicProcess) refers to iic.o(.bss) for iic_t
    control_task.o(i.Beep_Ctrl_Pro) refers to gpio.o(i.gpioSetOutput) for gpioSetOutput
    control_task.o(i.Beep_Ctrl_Pro) refers to variable.o(.bss) for g_myself_data
    control_task.o(i.Beep_Ctrl_Pro) refers to control_task.o(.data) for s_oldBeepCmd
    control_task.o(i.COM_Overtime_Check_Pro) refers to system_config.o(i.ClearErrorByte) for ClearErrorByte
    control_task.o(i.COM_Overtime_Check_Pro) refers to system_config.o(i.SetErrorByte) for SetErrorByte
    control_task.o(i.COM_Overtime_Check_Pro) refers to control_task.o(.data) for m_ErrCnt
    control_task.o(i.COM_Overtime_Check_Pro) refers to variable.o(.bss) for g_bool
    control_task.o(i.Control_Task) refers to control_task.o(i.Normal_Tasks_Remarks) for Normal_Tasks_Remarks
    control_task.o(i.Control_Task) refers to control_task.o(i.Normal_Tasks_Process) for Normal_Tasks_Process
    control_task.o(i.Control_Task) refers to tasks.o(i.vTaskDelay) for vTaskDelay
    control_task.o(i.FrontLightProcess) refers to gpio.o(i.gpioSetOutput) for gpioSetOutput
    control_task.o(i.NFC_Card_ID_Pro) refers to parseframe.o(i.PushMiniFrame) for PushMiniFrame
    control_task.o(i.NFC_Card_ID_Pro) refers to reader_api.o(.bss) for PICC_A
    control_task.o(i.NFC_Card_ID_Pro) refers to reader_api.o(.data) for _my_id
    control_task.o(i.NFC_Card_ID_Pro) refers to variable.o(.bss) for g_bool
    control_task.o(i.Normal_Tasks_Process) refers to control_task.o(.data) for TaskComps
    control_task.o(i.Normal_Tasks_Remarks) refers to control_task.o(.data) for TaskComps
    control_task.o(i.Wireless_Power_Ctr_Handler) refers to gpio.o(i.gpioGetInput) for gpioGetInput
    control_task.o(i.Wireless_Power_Ctr_Handler) refers to gpio.o(i.gpioSetOutput) for gpioSetOutput
    control_task.o(i.Wireless_Power_Ctr_Handler) refers to variable.o(.bss) for g_myself_data
    control_task.o(i.Wireless_Power_Ctr_Handler) refers to control_task.o(.data) for Last_input_state
    control_task.o(i.Wireless_Power_Ctr_Handler) refers to variable.o(.data) for g_wireless_charger_vol
    control_task.o(.data) refers to stateupdate.o(i.Query_Send_Data_Pro) for Query_Send_Data_Pro
    control_task.o(.data) refers to universal_init.o(i.Get_RealVaule) for Get_RealVaule
    control_task.o(.data) refers to control_task.o(i.COM_Overtime_Check_Pro) for COM_Overtime_Check_Pro
    control_task.o(.data) refers to handletemperature.o(i.Handle_Temp_Ctr) for Handle_Temp_Ctr
    control_task.o(.data) refers to reader_api.o(i.LPCD_Read) for LPCD_Read
    control_task.o(.data) refers to control_task.o(i.NFC_Card_ID_Pro) for NFC_Card_ID_Pro
    control_task.o(.data) refers to control_task.o(i.Wireless_Power_Ctr_Handler) for Wireless_Power_Ctr_Handler
    control_task.o(.data) refers to control_task.o(i.Beep_Ctrl_Pro) for Beep_Ctrl_Pro
    control_task.o(.data) refers to turnlightprocess.o(i.turnLightProcess) for turnLightProcess
    control_task.o(.data) refers to control_task.o(i.FrontLightProcess) for FrontLightProcess
    flash.o(i.Flash_Prepared) refers to stm32f0xx_flash.o(i.FLASH_Unlock) for FLASH_Unlock
    flash.o(i.Flash_Prepared) refers to flash.o(i.Flash_PagesMask) for Flash_PagesMask
    flash.o(i.Flash_Prepared) refers to stm32f0xx_flash.o(i.FLASH_ErasePage) for FLASH_ErasePage
    flash.o(i.Flash_Prepared) refers to stm32f0xx_flash.o(i.FLASH_Lock) for FLASH_Lock
    flash.o(i.Flash_Write) refers to stm32f0xx_flash.o(i.FLASH_Unlock) for FLASH_Unlock
    flash.o(i.Flash_Write) refers to stm32f0xx_flash.o(i.FLASH_ProgramHalfWord) for FLASH_ProgramHalfWord
    flash.o(i.Flash_Write) refers to stm32f0xx_flash.o(i.FLASH_Lock) for FLASH_Lock
    flash.o(i.Flash_Write_Word) refers to stm32f0xx_flash.o(i.FLASH_Unlock) for FLASH_Unlock
    flash.o(i.Flash_Write_Word) refers to memcpya.o(.text) for __aeabi_memcpy
    flash.o(i.Flash_Write_Word) refers to stm32f0xx_flash.o(i.FLASH_ProgramWord) for FLASH_ProgramWord
    flash.o(i.Flash_Write_Word) refers to stm32f0xx_flash.o(i.FLASH_Lock) for FLASH_Lock
    iap.o(i.IAP_EraseSWFlash) refers to flash.o(i.Flash_Prepared) for Flash_Prepared
    iap.o(i.IAP_Init) refers to iap.o(i.IAP_Reset) for IAP_Reset
    iap.o(i.IAP_Init) refers to flash.o(i.Flash_Read) for Flash_Read
    iap.o(i.IAP_Init) refers to iap.o(i.IAP_SaveFCtrlmap) for IAP_SaveFCtrlmap
    iap.o(i.IAP_Init) refers to iap.o(.bss) for g_FCtrlMap
    iap.o(i.IAP_Init) refers to iap.o(.data) for g_FCtrlMap_Default
    iap.o(i.IAP_ParseFrame) refers to parseframe.o(i.PushMiniFrame) for PushMiniFrame
    iap.o(i.IAP_ParseFrame) refers to memcpya.o(.text) for __aeabi_memcpy
    iap.o(i.IAP_ParseFrame) refers to iap.o(i.IAP_Reset) for IAP_Reset
    iap.o(i.IAP_ParseFrame) refers to iap.o(i.IAP_SaveFCtrlmap) for IAP_SaveFCtrlmap
    iap.o(i.IAP_ParseFrame) refers to iap.o(i.IAP_EraseSWFlash) for IAP_EraseSWFlash
    iap.o(i.IAP_ParseFrame) refers to iap.o(i.IAP_decrypt) for IAP_decrypt
    iap.o(i.IAP_ParseFrame) refers to system_config.o(i.Disable_Interrupt) for Disable_Interrupt
    iap.o(i.IAP_ParseFrame) refers to flash.o(i.Flash_Write_Word) for Flash_Write_Word
    iap.o(i.IAP_ParseFrame) refers to system_config.o(i.Enable_Interrupt) for Enable_Interrupt
    iap.o(i.IAP_ParseFrame) refers to iap.o(.bss) for iap_state
    iap.o(i.IAP_ParseFrame) refers to iap.o(.data) for m_BinOldSliceForDecr
    iap.o(i.IAP_ParseFrame) refers to iap.o(.ARM.__AT_0x08001100) for check_code
    iap.o(i.IAP_ParseFrame) refers to variable.o(.bss) for g_bool
    iap.o(i.IAP_Reset) refers to iap.o(.bss) for iap_state
    iap.o(i.IAP_Reset) refers to iap.o(.data) for m_BinOldSliceForDecr
    iap.o(i.IAP_SaveFCtrlmap) refers to system_config.o(i.Disable_Interrupt) for Disable_Interrupt
    iap.o(i.IAP_SaveFCtrlmap) refers to flash.o(i.Flash_Prepared) for Flash_Prepared
    iap.o(i.IAP_SaveFCtrlmap) refers to flash.o(i.Flash_Write) for Flash_Write
    iap.o(i.IAP_SaveFCtrlmap) refers to system_config.o(i.Enable_Interrupt) for Enable_Interrupt
    iap.o(i.IAP_SaveFCtrlmap) refers to iap.o(.bss) for g_FCtrlMap
    iap.o(i.IAP_decrypt) refers to memcpya.o(.text) for __aeabi_memcpy
    iap.o(i.IAP_encrypt) refers to memcpya.o(.text) for __aeabi_memcpy
    handletemperature.o(i.Calculate_Value_By_Linertable) refers to handletemperature.o(i.Linear_Table) for Linear_Table
    handletemperature.o(i.Handle_Temp_Ctr) refers to universal_init.o(i.ADC_Get_ConversionValue) for ADC_Get_ConversionValue
    handletemperature.o(i.Handle_Temp_Ctr) refers to handletemperature.o(i.NTC_GET_Temperature) for NTC_GET_Temperature
    handletemperature.o(i.Handle_Temp_Ctr) refers to universal_init.o(i.Handle_Temp_Set) for Handle_Temp_Set
    handletemperature.o(i.Handle_Temp_Ctr) refers to variable.o(.bss) for g_myself_data
    handletemperature.o(i.Linear_Table) refers to idiv.o(.text) for __aeabi_idivmod
    handletemperature.o(i.NTC_GET_Temperature) refers to idiv.o(.text) for __aeabi_idivmod
    handletemperature.o(i.NTC_GET_Temperature) refers to handletemperature.o(i.Calculate_Value_By_Linertable) for Calculate_Value_By_Linertable
    handletemperature.o(i.NTC_GET_Temperature) refers to handletemperature.o(.data) for _temperature_object
    stateupdate.o(i.Check_IAP_Mode) refers to variable.o(.bss) for g_bool
    stateupdate.o(i.Check_IAP_Mode) refers to stateupdate.o(.data) for s_cntIAP
    stateupdate.o(i.Query_Send_Data_Pro) refers to parseframe.o(i.PushMiniFrame) for PushMiniFrame
    stateupdate.o(i.Query_Send_Data_Pro) refers to stateupdate.o(i.powerCtrl) for powerCtrl
    stateupdate.o(i.Query_Send_Data_Pro) refers to variable.o(.bss) for g_bool
    stateupdate.o(i.Query_Send_Data_Pro) refers to stateupdate.o(.data) for send100MsCnt
    stateupdate.o(i.powerCtrl) refers to gpio.o(i.gpioSetOutput) for gpioSetOutput
    stateupdate.o(i.powerCtrl) refers to variable.o(.bss) for g_myself_data
    turnlightprocess.o(i.turnLightProcess) refers to gpio.o(i.gpioSetOutput) for gpioSetOutput
    turnlightprocess.o(i.turnLightProcess) refers to variable.o(.bss) for g_myself_data
    fm175xx.o(i.Clear_FIFO) refers to fm175xx.o(i.GetReg) for GetReg
    fm175xx.o(i.Clear_FIFO) refers to fm175xx.o(i.SetReg) for SetReg
    fm175xx.o(i.FM175XX_HPD) refers to stm32f0xx_gpio.o(i.GPIO_ResetBits) for GPIO_ResetBits
    fm175xx.o(i.FM175XX_HPD) refers to stm32f0xx_gpio.o(i.GPIO_SetBits) for GPIO_SetBits
    fm175xx.o(i.FM175XX_HPD) refers to system_config.o(i.delay_us) for delay_us
    fm175xx.o(i.FM175XX_HardReset) refers to stm32f0xx_gpio.o(i.GPIO_Init) for GPIO_Init
    fm175xx.o(i.FM175XX_HardReset) refers to fm175xx.o(i.FM175XX_HPD) for FM175XX_HPD
    fm175xx.o(i.FM175XX_HardReset) refers to system_config.o(i.delay_us) for delay_us
    fm175xx.o(i.FM175XX_SoftReset) refers to fm175xx.o(i.SetReg) for SetReg
    fm175xx.o(i.FM175XX_SoftReset) refers to fm175xx.o(i.mDelay) for mDelay
    fm175xx.o(i.FM175XX_SoftReset) refers to fm175xx.o(i.GetReg) for GetReg
    fm175xx.o(i.GetReg) refers to stm32f0xx_gpio.o(i.GPIO_ResetBits) for GPIO_ResetBits
    fm175xx.o(i.GetReg) refers to stm32f0xx_spi.o(i.SPI_SendData8) for SPI_SendData8
    fm175xx.o(i.GetReg) refers to stm32f0xx_spi.o(i.SPI_I2S_GetFlagStatus) for SPI_I2S_GetFlagStatus
    fm175xx.o(i.GetReg) refers to stm32f0xx_spi.o(i.SPI_I2S_ClearFlag) for SPI_I2S_ClearFlag
    fm175xx.o(i.GetReg) refers to stm32f0xx_spi.o(i.SPI_ReceiveData8) for SPI_ReceiveData8
    fm175xx.o(i.GetReg) refers to stm32f0xx_gpio.o(i.GPIO_SetBits) for GPIO_SetBits
    fm175xx.o(i.GetReg_Ext) refers to fm175xx.o(i.SetReg) for SetReg
    fm175xx.o(i.GetReg_Ext) refers to fm175xx.o(i.GetReg) for GetReg
    fm175xx.o(i.ModifyReg) refers to fm175xx.o(i.GetReg) for GetReg
    fm175xx.o(i.ModifyReg) refers to fm175xx.o(i.SetReg) for SetReg
    fm175xx.o(i.ModifyReg_Ext) refers to fm175xx.o(i.GetReg_Ext) for GetReg_Ext
    fm175xx.o(i.ModifyReg_Ext) refers to fm175xx.o(i.SetReg_Ext) for SetReg_Ext
    fm175xx.o(i.SPI_Read_FIFO) refers to stm32f0xx_gpio.o(i.GPIO_ResetBits) for GPIO_ResetBits
    fm175xx.o(i.SPI_Read_FIFO) refers to stm32f0xx_spi.o(i.SPI_SendData8) for SPI_SendData8
    fm175xx.o(i.SPI_Read_FIFO) refers to stm32f0xx_spi.o(i.SPI_I2S_GetFlagStatus) for SPI_I2S_GetFlagStatus
    fm175xx.o(i.SPI_Read_FIFO) refers to stm32f0xx_spi.o(i.SPI_ReceiveData8) for SPI_ReceiveData8
    fm175xx.o(i.SPI_Read_FIFO) refers to stm32f0xx_gpio.o(i.GPIO_SetBits) for GPIO_SetBits
    fm175xx.o(i.SPI_Write_FIFO) refers to stm32f0xx_gpio.o(i.GPIO_ResetBits) for GPIO_ResetBits
    fm175xx.o(i.SPI_Write_FIFO) refers to stm32f0xx_spi.o(i.SPI_SendData8) for SPI_SendData8
    fm175xx.o(i.SPI_Write_FIFO) refers to stm32f0xx_spi.o(i.SPI_I2S_GetFlagStatus) for SPI_I2S_GetFlagStatus
    fm175xx.o(i.SPI_Write_FIFO) refers to stm32f0xx_spi.o(i.SPI_ReceiveData8) for SPI_ReceiveData8
    fm175xx.o(i.SPI_Write_FIFO) refers to stm32f0xx_gpio.o(i.GPIO_SetBits) for GPIO_SetBits
    fm175xx.o(i.SetReg) refers to stm32f0xx_gpio.o(i.GPIO_ResetBits) for GPIO_ResetBits
    fm175xx.o(i.SetReg) refers to stm32f0xx_spi.o(i.SPI_SendData8) for SPI_SendData8
    fm175xx.o(i.SetReg) refers to stm32f0xx_spi.o(i.SPI_I2S_GetFlagStatus) for SPI_I2S_GetFlagStatus
    fm175xx.o(i.SetReg) refers to stm32f0xx_spi.o(i.SPI_I2S_ClearFlag) for SPI_I2S_ClearFlag
    fm175xx.o(i.SetReg) refers to stm32f0xx_spi.o(i.SPI_ReceiveData8) for SPI_ReceiveData8
    fm175xx.o(i.SetReg) refers to stm32f0xx_gpio.o(i.GPIO_SetBits) for GPIO_SetBits
    fm175xx.o(i.SetReg_Ext) refers to fm175xx.o(i.SetReg) for SetReg
    mifare.o(i.Mifare_Auth) refers to reader_api.o(i.Command_Execute) for Command_Execute
    mifare.o(i.Mifare_Auth) refers to fm175xx.o(i.GetReg) for GetReg
    mifare.o(i.Mifare_Blockdec) refers to reader_api.o(i.Command_Execute) for Command_Execute
    mifare.o(i.Mifare_Blockdec) refers to memcpya.o(.text) for __aeabi_memcpy
    mifare.o(i.Mifare_Blockinc) refers to reader_api.o(i.Command_Execute) for Command_Execute
    mifare.o(i.Mifare_Blockinc) refers to memcpya.o(.text) for __aeabi_memcpy
    mifare.o(i.Mifare_Blockread) refers to reader_api.o(i.Command_Execute) for Command_Execute
    mifare.o(i.Mifare_Blockread) refers to memcpya.o(.text) for __aeabi_memcpy
    mifare.o(i.Mifare_Blockset) refers to mifare.o(i.Mifare_Blockwrite) for Mifare_Blockwrite
    mifare.o(i.Mifare_Blockwrite) refers to reader_api.o(i.Command_Execute) for Command_Execute
    mifare.o(i.Mifare_Blockwrite) refers to reader_api.o(i.SetTimeOut) for SetTimeOut
    mifare.o(i.Mifare_Blockwrite) refers to memcpya.o(.text) for __aeabi_memcpy
    mifare.o(i.Mifare_Clear_Crypto) refers to fm175xx.o(i.ModifyReg) for ModifyReg
    mifare.o(i.Mifare_Restore) refers to reader_api.o(i.Command_Execute) for Command_Execute
    mifare.o(i.Mifare_Restore) refers to memcpya.o(.text) for __aeabi_memcpy
    mifare.o(i.Mifare_Transfer) refers to reader_api.o(i.Command_Execute) for Command_Execute
    reader_api.o(i.Command_Execute) refers to fm175xx.o(i.SetReg) for SetReg
    reader_api.o(i.Command_Execute) refers to fm175xx.o(i.Clear_FIFO) for Clear_FIFO
    reader_api.o(i.Command_Execute) refers to reader_api.o(i.SetSendCRC) for SetSendCRC
    reader_api.o(i.Command_Execute) refers to reader_api.o(i.SetReceiveCRC) for SetReceiveCRC
    reader_api.o(i.Command_Execute) refers to reader_api.o(i.SetTimeOut) for SetTimeOut
    reader_api.o(i.Command_Execute) refers to fm175xx.o(i.SPI_Write_FIFO) for SPI_Write_FIFO
    reader_api.o(i.Command_Execute) refers to fm175xx.o(i.GetReg) for GetReg
    reader_api.o(i.Command_Execute) refers to fm175xx.o(i.ModifyReg) for ModifyReg
    reader_api.o(i.Command_Execute) refers to fm175xx.o(i.SPI_Read_FIFO) for SPI_Read_FIFO
    reader_api.o(i.FM175XX_Initial_ReaderA) refers to fm175xx.o(i.SetReg) for SetReg
    reader_api.o(i.FM175XX_Initial_ReaderA) refers to fm175xx.o(i.ModifyReg) for ModifyReg
    reader_api.o(i.FM175XX_Initial_ReaderB) refers to fm175xx.o(i.ModifyReg) for ModifyReg
    reader_api.o(i.FM175XX_Initial_ReaderB) refers to fm175xx.o(i.SetReg) for SetReg
    reader_api.o(i.FM175XX_Polling) refers to reader_api.o(i.SetRf) for SetRf
    reader_api.o(i.FM175XX_Polling) refers to reader_api.o(i.FM175XX_Initial_ReaderA) for FM175XX_Initial_ReaderA
    reader_api.o(i.FM175XX_Polling) refers to reader_api.o(i.ReaderA_Wakeup) for ReaderA_Wakeup
    reader_api.o(i.LPCD_Read) refers to reader_api.o(i.RE_LPCD_CALIBRATION) for RE_LPCD_CALIBRATION
    reader_api.o(i.LPCD_Read) refers to reader_api.o(i.Lpcd_Set_Mode) for Lpcd_Set_Mode
    reader_api.o(i.LPCD_Read) refers to reader_api.o(i.Lpcd_IRQ_Event) for Lpcd_IRQ_Event
    reader_api.o(i.LPCD_Read) refers to reader_api.o(i.FM175XX_Polling) for FM175XX_Polling
    reader_api.o(i.LPCD_Read) refers to reader_api.o(i.TYPE_A_EVENT) for TYPE_A_EVENT
    reader_api.o(i.LPCD_Read) refers to reader_api.o(i.check_NFC_key) for check_NFC_key
    reader_api.o(i.LPCD_Read) refers to variable.o(.bss) for g_bool
    reader_api.o(i.LPCD_Read) refers to reader_api.o(.data) for NFC_set
    reader_api.o(i.Lpcd_Calibrate_Driver) refers to reader_api.o(i.Lpcd_Set_Gain) for Lpcd_Set_Gain
    reader_api.o(i.Lpcd_Calibrate_Driver) refers to reader_api.o(i.Lpcd_Set_Driver) for Lpcd_Set_Driver
    reader_api.o(i.Lpcd_Calibrate_Driver) refers to reader_api.o(i.Lpcd_Get_Calibration_Value) for Lpcd_Get_Calibration_Value
    reader_api.o(i.Lpcd_Calibrate_Driver) refers to reader_api.o(i.Lpcd_Set_Threshold) for Lpcd_Set_Threshold
    reader_api.o(i.Lpcd_Calibrate_Driver) refers to reader_api.o(.bss) for Lpcd
    reader_api.o(i.Lpcd_Calibrate_Driver) refers to reader_api.o(.constdata) for LPCD_GAIN
    reader_api.o(i.Lpcd_Calibrate_Reference) refers to reader_api.o(i.Lpcd_Reset_Status) for Lpcd_Reset_Status
    reader_api.o(i.Lpcd_Calibrate_Reference) refers to reader_api.o(i.Lpcd_Set_Reference) for Lpcd_Set_Reference
    reader_api.o(i.Lpcd_Calibrate_Reference) refers to reader_api.o(i.Lpcd_Set_Gain) for Lpcd_Set_Gain
    reader_api.o(i.Lpcd_Calibrate_Reference) refers to reader_api.o(i.Lpcd_Set_Driver) for Lpcd_Set_Driver
    reader_api.o(i.Lpcd_Calibrate_Reference) refers to reader_api.o(i.Lpcd_Get_Calibration_Value) for Lpcd_Get_Calibration_Value
    reader_api.o(i.Lpcd_Calibrate_Reference) refers to reader_api.o(.bss) for Lpcd
    reader_api.o(i.Lpcd_Calibrate_Reference) refers to reader_api.o(.constdata) for LPCD_GAIN
    reader_api.o(i.Lpcd_Calibration_Backup) refers to reader_api.o(.bss) for Lpcd
    reader_api.o(i.Lpcd_Calibration_Event) refers to reader_api.o(i.Lpcd_Init_Register) for Lpcd_Init_Register
    reader_api.o(i.Lpcd_Calibration_Event) refers to reader_api.o(i.Lpcd_Set_Timer) for Lpcd_Set_Timer
    reader_api.o(i.Lpcd_Calibration_Event) refers to reader_api.o(i.Lpcd_Reset_Status) for Lpcd_Reset_Status
    reader_api.o(i.Lpcd_Calibration_Event) refers to reader_api.o(i.Lpcd_Calibrate_Reference) for Lpcd_Calibrate_Reference
    reader_api.o(i.Lpcd_Calibration_Event) refers to reader_api.o(i.Lpcd_Calibrate_Driver) for Lpcd_Calibrate_Driver
    reader_api.o(i.Lpcd_Calibration_Event) refers to reader_api.o(i.Lpcd_Calibration_Backup) for Lpcd_Calibration_Backup
    reader_api.o(i.Lpcd_Calibration_Event) refers to reader_api.o(i.Lpcd_Calibration_Restore) for Lpcd_Calibration_Restore
    reader_api.o(i.Lpcd_Calibration_Restore) refers to reader_api.o(i.Lpcd_Set_Reference) for Lpcd_Set_Reference
    reader_api.o(i.Lpcd_Calibration_Restore) refers to reader_api.o(i.Lpcd_Set_Gain) for Lpcd_Set_Gain
    reader_api.o(i.Lpcd_Calibration_Restore) refers to reader_api.o(i.Lpcd_Set_Driver) for Lpcd_Set_Driver
    reader_api.o(i.Lpcd_Calibration_Restore) refers to reader_api.o(.bss) for Lpcd
    reader_api.o(i.Lpcd_Calibration_Restore) refers to reader_api.o(.constdata) for LPCD_GAIN
    reader_api.o(i.Lpcd_Get_Calibration_Value) refers to fm175xx.o(i.SetReg_Ext) for SetReg_Ext
    reader_api.o(i.Lpcd_Get_Calibration_Value) refers to fm175xx.o(i.mDelay) for mDelay
    reader_api.o(i.Lpcd_Get_Calibration_Value) refers to reader_api.o(i.Lpcd_WaitFor_Irq) for Lpcd_WaitFor_Irq
    reader_api.o(i.Lpcd_Get_Calibration_Value) refers to fm175xx.o(i.ModifyReg_Ext) for ModifyReg_Ext
    reader_api.o(i.Lpcd_Get_Calibration_Value) refers to reader_api.o(i.Lpcd_Get_Value) for Lpcd_Get_Value
    reader_api.o(i.Lpcd_Get_Calibration_Value) refers to reader_api.o(i.Lpcd_Reset_Status) for Lpcd_Reset_Status
    reader_api.o(i.Lpcd_Get_IRQ) refers to fm175xx.o(i.GetReg_Ext) for GetReg_Ext
    reader_api.o(i.Lpcd_Get_IRQ) refers to reader_api.o(i.Lpcd_Reset_Status) for Lpcd_Reset_Status
    reader_api.o(i.Lpcd_Get_Value) refers to fm175xx.o(i.GetReg_Ext) for GetReg_Ext
    reader_api.o(i.Lpcd_IRQ_Event) refers to reader_api.o(i.Lpcd_Get_IRQ) for Lpcd_Get_IRQ
    reader_api.o(i.Lpcd_IRQ_Event) refers to reader_api.o(i.Lpcd_Set_IRQ_pin) for Lpcd_Set_IRQ_pin
    reader_api.o(i.Lpcd_Init_Register) refers to reader_api.o(i.Lpcd_Set_IRQ_pin) for Lpcd_Set_IRQ_pin
    reader_api.o(i.Lpcd_Init_Register) refers to fm175xx.o(i.SetReg_Ext) for SetReg_Ext
    reader_api.o(i.Lpcd_Reset_Status) refers to fm175xx.o(i.SetReg_Ext) for SetReg_Ext
    reader_api.o(i.Lpcd_Set_Driver) refers to fm175xx.o(i.GetReg) for GetReg
    reader_api.o(i.Lpcd_Set_Driver) refers to fm175xx.o(i.SetReg_Ext) for SetReg_Ext
    reader_api.o(i.Lpcd_Set_Driver) refers to fm175xx.o(i.SetReg) for SetReg
    reader_api.o(i.Lpcd_Set_Gain) refers to fm175xx.o(i.SetReg_Ext) for SetReg_Ext
    reader_api.o(i.Lpcd_Set_IE) refers to fm175xx.o(i.SetReg_Ext) for SetReg_Ext
    reader_api.o(i.Lpcd_Set_IRQ_pin) refers to fm175xx.o(i.SetReg) for SetReg
    reader_api.o(i.Lpcd_Set_Mode) refers to reader_api.o(i.Lpcd_Set_IE) for Lpcd_Set_IE
    reader_api.o(i.Lpcd_Set_Mode) refers to fm175xx.o(i.FM175XX_HPD) for FM175XX_HPD
    reader_api.o(i.Lpcd_Set_Reference) refers to fm175xx.o(i.SetReg_Ext) for SetReg_Ext
    reader_api.o(i.Lpcd_Set_Threshold) refers to fm175xx.o(i.SetReg_Ext) for SetReg_Ext
    reader_api.o(i.Lpcd_Set_Timer) refers to fm175xx.o(i.SetReg_Ext) for SetReg_Ext
    reader_api.o(i.Lpcd_Set_Timer) refers to reader_api.o(.bss) for Lpcd
    reader_api.o(i.Lpcd_WaitFor_Irq) refers to fm175xx.o(i.GetReg_Ext) for GetReg_Ext
    reader_api.o(i.Lpcd_WaitFor_Irq) refers to reader_api.o(i.uDelay) for uDelay
    reader_api.o(i.ReaderA_AntiColl) refers to reader_api.o(i.Command_Execute) for Command_Execute
    reader_api.o(i.ReaderA_AntiColl) refers to fm175xx.o(i.ModifyReg) for ModifyReg
    reader_api.o(i.ReaderA_AntiColl) refers to memcpya.o(.text) for __aeabi_memcpy
    reader_api.o(i.ReaderA_AntiColl) refers to reader_api.o(.constdata) for RF_CMD_ANTICOL
    reader_api.o(i.ReaderA_AntiColl) refers to reader_api.o(.bss) for PICC_A
    reader_api.o(i.ReaderA_CardActivate) refers to reader_api.o(i.ReaderA_Wakeup) for ReaderA_Wakeup
    reader_api.o(i.ReaderA_CardActivate) refers to reader_api.o(i.ReaderA_AntiColl) for ReaderA_AntiColl
    reader_api.o(i.ReaderA_CardActivate) refers to reader_api.o(i.ReaderA_Select) for ReaderA_Select
    reader_api.o(i.ReaderA_CardActivate) refers to reader_api.o(.bss) for PICC_A
    reader_api.o(i.ReaderA_Halt) refers to reader_api.o(i.Command_Execute) for Command_Execute
    reader_api.o(i.ReaderA_Request) refers to reader_api.o(i.Command_Execute) for Command_Execute
    reader_api.o(i.ReaderA_Request) refers to reader_api.o(.bss) for PICC_A
    reader_api.o(i.ReaderA_Select) refers to reader_api.o(i.Command_Execute) for Command_Execute
    reader_api.o(i.ReaderA_Select) refers to reader_api.o(.constdata) for RF_CMD_ANTICOL
    reader_api.o(i.ReaderA_Select) refers to reader_api.o(.bss) for PICC_A
    reader_api.o(i.ReaderA_Wakeup) refers to reader_api.o(i.Command_Execute) for Command_Execute
    reader_api.o(i.ReaderA_Wakeup) refers to reader_api.o(.bss) for PICC_A
    reader_api.o(i.ReaderB_Attrib) refers to reader_api.o(i.Command_Execute) for Command_Execute
    reader_api.o(i.ReaderB_Attrib) refers to reader_api.o(.bss) for PICC_B
    reader_api.o(i.ReaderB_GetUID) refers to reader_api.o(i.Command_Execute) for Command_Execute
    reader_api.o(i.ReaderB_GetUID) refers to memcpya.o(.text) for __aeabi_memcpy
    reader_api.o(i.ReaderB_GetUID) refers to reader_api.o(.bss) for PICC_B
    reader_api.o(i.ReaderB_Request) refers to reader_api.o(i.Command_Execute) for Command_Execute
    reader_api.o(i.ReaderB_Request) refers to memcpya.o(.text) for __aeabi_memcpy
    reader_api.o(i.ReaderB_Request) refers to reader_api.o(.bss) for PICC_B
    reader_api.o(i.ReaderB_Wakeup) refers to reader_api.o(i.Command_Execute) for Command_Execute
    reader_api.o(i.ReaderB_Wakeup) refers to memcpya.o(.text) for __aeabi_memcpy
    reader_api.o(i.ReaderB_Wakeup) refers to reader_api.o(.bss) for PICC_B
    reader_api.o(i.SetReceiveCRC) refers to fm175xx.o(i.ModifyReg) for ModifyReg
    reader_api.o(i.SetRf) refers to fm175xx.o(i.ModifyReg) for ModifyReg
    reader_api.o(i.SetRf) refers to system_config.o(i.delay_us) for delay_us
    reader_api.o(i.SetSendCRC) refers to fm175xx.o(i.ModifyReg) for ModifyReg
    reader_api.o(i.SetTimeOut) refers to uidiv.o(.text) for __aeabi_uidivmod
    reader_api.o(i.SetTimeOut) refers to fm175xx.o(i.SetReg) for SetReg
    reader_api.o(i.TYPE_A_EVENT) refers to reader_api.o(i.SetRf) for SetRf
    reader_api.o(i.TYPE_A_EVENT) refers to reader_api.o(i.FM175XX_Initial_ReaderA) for FM175XX_Initial_ReaderA
    reader_api.o(i.TYPE_A_EVENT) refers to reader_api.o(i.ReaderA_CardActivate) for ReaderA_CardActivate
    reader_api.o(i.TYPE_A_EVENT) refers to mifare.o(i.Mifare_Auth) for Mifare_Auth
    reader_api.o(i.TYPE_A_EVENT) refers to memcpya.o(.text) for __aeabi_memcpy
    reader_api.o(i.TYPE_A_EVENT) refers to mifare.o(i.Mifare_Blockwrite) for Mifare_Blockwrite
    reader_api.o(i.TYPE_A_EVENT) refers to mifare.o(i.Mifare_Blockread) for Mifare_Blockread
    reader_api.o(i.TYPE_A_EVENT) refers to reader_api.o(i.JUDGE) for JUDGE
    reader_api.o(i.TYPE_A_EVENT) refers to mifare.o(.data) for NFC_SECTOR
    reader_api.o(i.TYPE_A_EVENT) refers to variable.o(.bss) for g_bool
    reader_api.o(i.TYPE_A_EVENT) refers to reader_api.o(.bss) for PICC_A
    reader_api.o(i.TYPE_A_EVENT) refers to mifare.o(.bss) for BLOCK_DATA_R
    reader_api.o(i.check_NFC_key) refers to memcpya.o(.text) for __aeabi_memcpy
    reader_api.o(i.check_NFC_key) refers to memseta.o(.text) for __aeabi_memclr
    reader_api.o(i.check_NFC_key) refers to reader_api.o(.bss) for PICC_A
    reader_api.o(i.check_NFC_key) refers to reader_api.o(.data) for _my_id
    spi.o(i.EXTI2_3_IRQHandler) refers to stm32f0xx_exti.o(i.EXTI_GetITStatus) for EXTI_GetITStatus
    spi.o(i.EXTI2_3_IRQHandler) refers to stm32f0xx_exti.o(i.EXTI_ClearITPendingBit) for EXTI_ClearITPendingBit
    spi.o(i.EXTI2_3_IRQHandler) refers to reader_api.o(.data) for NFC_INT
    spi.o(i.EXTI_Config) refers to stm32f0xx_gpio.o(i.GPIO_Init) for GPIO_Init
    spi.o(i.EXTI_Config) refers to stm32f0xx_syscfg.o(i.SYSCFG_EXTILineConfig) for SYSCFG_EXTILineConfig
    spi.o(i.EXTI_Config) refers to stm32f0xx_exti.o(i.EXTI_Init) for EXTI_Init
    spi.o(i.SPI1_Configuration) refers to stm32f0xx_gpio.o(i.GPIO_PinAFConfig) for GPIO_PinAFConfig
    spi.o(i.SPI1_Configuration) refers to stm32f0xx_gpio.o(i.GPIO_Init) for GPIO_Init
    spi.o(i.SPI1_Configuration) refers to stm32f0xx_gpio.o(i.GPIO_SetBits) for GPIO_SetBits
    spi.o(i.SPI1_Configuration) refers to stm32f0xx_spi.o(i.SPI_Init) for SPI_Init
    spi.o(i.SPI1_Configuration) refers to stm32f0xx_spi.o(i.SPI_RxFIFOThresholdConfig) for SPI_RxFIFOThresholdConfig
    spi.o(i.SPI1_Configuration) refers to stm32f0xx_spi.o(i.SPI_Cmd) for SPI_Cmd
    event_groups.o(i.vEventGroupClearBitsCallback) refers to event_groups.o(i.xEventGroupClearBits) for xEventGroupClearBits
    event_groups.o(i.vEventGroupDelete) refers to tasks.o(i.vTaskSuspendAll) for vTaskSuspendAll
    event_groups.o(i.vEventGroupDelete) refers to tasks.o(i.vTaskRemoveFromUnorderedEventList) for vTaskRemoveFromUnorderedEventList
    event_groups.o(i.vEventGroupDelete) refers to heap_4.o(i.vPortFree) for vPortFree
    event_groups.o(i.vEventGroupDelete) refers to tasks.o(i.xTaskResumeAll) for xTaskResumeAll
    event_groups.o(i.vEventGroupSetBitsCallback) refers to event_groups.o(i.xEventGroupSetBits) for xEventGroupSetBits
    event_groups.o(i.xEventGroupClearBits) refers to port.o(i.vPortEnterCritical) for vPortEnterCritical
    event_groups.o(i.xEventGroupClearBits) refers to port.o(i.vPortExitCritical) for vPortExitCritical
    event_groups.o(i.xEventGroupClearBitsFromISR) refers to timers.o(i.xTimerPendFunctionCallFromISR) for xTimerPendFunctionCallFromISR
    event_groups.o(i.xEventGroupClearBitsFromISR) refers to event_groups.o(i.vEventGroupClearBitsCallback) for vEventGroupClearBitsCallback
    event_groups.o(i.xEventGroupCreate) refers to heap_4.o(i.pvPortMalloc) for pvPortMalloc
    event_groups.o(i.xEventGroupCreate) refers to list.o(i.vListInitialise) for vListInitialise
    event_groups.o(i.xEventGroupGetBitsFromISR) refers to port.o(.emb_text) for ulSetInterruptMaskFromISR
    event_groups.o(i.xEventGroupSetBits) refers to tasks.o(i.vTaskSuspendAll) for vTaskSuspendAll
    event_groups.o(i.xEventGroupSetBits) refers to tasks.o(i.vTaskRemoveFromUnorderedEventList) for vTaskRemoveFromUnorderedEventList
    event_groups.o(i.xEventGroupSetBits) refers to tasks.o(i.xTaskResumeAll) for xTaskResumeAll
    event_groups.o(i.xEventGroupSetBitsFromISR) refers to timers.o(i.xTimerPendFunctionCallFromISR) for xTimerPendFunctionCallFromISR
    event_groups.o(i.xEventGroupSetBitsFromISR) refers to event_groups.o(i.vEventGroupSetBitsCallback) for vEventGroupSetBitsCallback
    event_groups.o(i.xEventGroupSync) refers to tasks.o(i.xTaskGetSchedulerState) for xTaskGetSchedulerState
    event_groups.o(i.xEventGroupSync) refers to tasks.o(i.vTaskSuspendAll) for vTaskSuspendAll
    event_groups.o(i.xEventGroupSync) refers to event_groups.o(i.xEventGroupSetBits) for xEventGroupSetBits
    event_groups.o(i.xEventGroupSync) refers to tasks.o(i.vTaskPlaceOnUnorderedEventList) for vTaskPlaceOnUnorderedEventList
    event_groups.o(i.xEventGroupSync) refers to tasks.o(i.xTaskResumeAll) for xTaskResumeAll
    event_groups.o(i.xEventGroupSync) refers to port.o(i.vPortYield) for vPortYield
    event_groups.o(i.xEventGroupSync) refers to tasks.o(i.uxTaskResetEventItemValue) for uxTaskResetEventItemValue
    event_groups.o(i.xEventGroupSync) refers to port.o(i.vPortEnterCritical) for vPortEnterCritical
    event_groups.o(i.xEventGroupSync) refers to port.o(i.vPortExitCritical) for vPortExitCritical
    event_groups.o(i.xEventGroupWaitBits) refers to tasks.o(i.xTaskGetSchedulerState) for xTaskGetSchedulerState
    event_groups.o(i.xEventGroupWaitBits) refers to tasks.o(i.vTaskSuspendAll) for vTaskSuspendAll
    event_groups.o(i.xEventGroupWaitBits) refers to event_groups.o(i.prvTestWaitCondition) for prvTestWaitCondition
    event_groups.o(i.xEventGroupWaitBits) refers to tasks.o(i.vTaskPlaceOnUnorderedEventList) for vTaskPlaceOnUnorderedEventList
    event_groups.o(i.xEventGroupWaitBits) refers to tasks.o(i.xTaskResumeAll) for xTaskResumeAll
    event_groups.o(i.xEventGroupWaitBits) refers to port.o(i.vPortYield) for vPortYield
    event_groups.o(i.xEventGroupWaitBits) refers to tasks.o(i.uxTaskResetEventItemValue) for uxTaskResetEventItemValue
    event_groups.o(i.xEventGroupWaitBits) refers to port.o(i.vPortEnterCritical) for vPortEnterCritical
    event_groups.o(i.xEventGroupWaitBits) refers to port.o(i.vPortExitCritical) for vPortExitCritical
    heap_4.o(i.prvHeapInit) refers to heap_4.o(.bss) for ucHeap
    heap_4.o(i.prvHeapInit) refers to heap_4.o(.data) for xStart
    heap_4.o(i.prvInsertBlockIntoFreeList) refers to heap_4.o(.data) for xStart
    heap_4.o(i.pvPortMalloc) refers to tasks.o(i.vTaskSuspendAll) for vTaskSuspendAll
    heap_4.o(i.pvPortMalloc) refers to heap_4.o(i.prvHeapInit) for prvHeapInit
    heap_4.o(i.pvPortMalloc) refers to heap_4.o(i.prvInsertBlockIntoFreeList) for prvInsertBlockIntoFreeList
    heap_4.o(i.pvPortMalloc) refers to tasks.o(i.xTaskResumeAll) for xTaskResumeAll
    heap_4.o(i.pvPortMalloc) refers to heap_4.o(.data) for pxEnd
    heap_4.o(i.vPortFree) refers to tasks.o(i.vTaskSuspendAll) for vTaskSuspendAll
    heap_4.o(i.vPortFree) refers to heap_4.o(i.prvInsertBlockIntoFreeList) for prvInsertBlockIntoFreeList
    heap_4.o(i.vPortFree) refers to tasks.o(i.xTaskResumeAll) for xTaskResumeAll
    heap_4.o(i.vPortFree) refers to heap_4.o(.data) for xBlockAllocatedBit
    heap_4.o(i.vPortGetHeapStats) refers to tasks.o(i.vTaskSuspendAll) for vTaskSuspendAll
    heap_4.o(i.vPortGetHeapStats) refers to tasks.o(i.xTaskResumeAll) for xTaskResumeAll
    heap_4.o(i.vPortGetHeapStats) refers to port.o(i.vPortEnterCritical) for vPortEnterCritical
    heap_4.o(i.vPortGetHeapStats) refers to port.o(i.vPortExitCritical) for vPortExitCritical
    heap_4.o(i.vPortGetHeapStats) refers to heap_4.o(.data) for xStart
    heap_4.o(i.xPortGetFreeHeapSize) refers to heap_4.o(.data) for xFreeBytesRemaining
    heap_4.o(i.xPortGetMinimumEverFreeHeapSize) refers to heap_4.o(.data) for xMinimumEverFreeBytesRemaining
    port.o(.emb_text) refers to tasks.o(.data) for pxCurrentTCB
    port.o(.emb_text) refers to tasks.o(i.vTaskSwitchContext) for vTaskSwitchContext
    port.o(i.SysTick_Handler) refers to port.o(.emb_text) for ulSetInterruptMaskFromISR
    port.o(i.SysTick_Handler) refers to tasks.o(i.xTaskIncrementTick) for xTaskIncrementTick
    port.o(i.prvTaskExitError) refers to port.o(.data) for uxCriticalNesting
    port.o(i.pxPortInitialiseStack) refers to port.o(i.prvTaskExitError) for prvTaskExitError
    port.o(i.vPortEndScheduler) refers to port.o(.data) for uxCriticalNesting
    port.o(i.vPortEnterCritical) refers to port.o(.data) for uxCriticalNesting
    port.o(i.vPortExitCritical) refers to port.o(.data) for uxCriticalNesting
    port.o(i.vPortSetupTimerInterrupt) refers to uidiv.o(.text) for __aeabi_uidivmod
    port.o(i.vPortSetupTimerInterrupt) refers to system_stm32f0xx.o(.data) for SystemCoreClock
    port.o(i.vPortSetupTimerInterrupt) refers to port.o(.data) for ulTimerCountsForOneTick
    port.o(i.vPortSuppressTicksAndSleep) refers to tasks.o(i.eTaskConfirmSleepModeStatus) for eTaskConfirmSleepModeStatus
    port.o(i.vPortSuppressTicksAndSleep) refers to uidiv.o(.text) for __aeabi_uidivmod
    port.o(i.vPortSuppressTicksAndSleep) refers to tasks.o(i.vTaskStepTick) for vTaskStepTick
    port.o(i.vPortSuppressTicksAndSleep) refers to port.o(.data) for xMaximumPossibleSuppressedTicks
    port.o(i.xPortStartScheduler) refers to port.o(i.vPortSetupTimerInterrupt) for vPortSetupTimerInterrupt
    port.o(i.xPortStartScheduler) refers to port.o(.emb_text) for __asm___6_port_c_39a90d8d__prvPortStartFirstTask
    port.o(i.xPortStartScheduler) refers to port.o(.data) for uxCriticalNesting
    queue.o(i.prvCopyDataFromQueue) refers to memcpya.o(.text) for __aeabi_memcpy
    queue.o(i.prvCopyDataToQueue) refers to tasks.o(i.xTaskPriorityDisinherit) for xTaskPriorityDisinherit
    queue.o(i.prvCopyDataToQueue) refers to memcpya.o(.text) for __aeabi_memcpy
    queue.o(i.prvInitialiseMutex) refers to queue.o(i.xQueueGenericSend) for xQueueGenericSend
    queue.o(i.prvInitialiseNewQueue) refers to queue.o(i.xQueueGenericReset) for xQueueGenericReset
    queue.o(i.prvIsQueueEmpty) refers to port.o(i.vPortEnterCritical) for vPortEnterCritical
    queue.o(i.prvIsQueueEmpty) refers to port.o(i.vPortExitCritical) for vPortExitCritical
    queue.o(i.prvIsQueueFull) refers to port.o(i.vPortEnterCritical) for vPortEnterCritical
    queue.o(i.prvIsQueueFull) refers to port.o(i.vPortExitCritical) for vPortExitCritical
    queue.o(i.prvNotifyQueueSetContainer) refers to queue.o(i.prvCopyDataToQueue) for prvCopyDataToQueue
    queue.o(i.prvNotifyQueueSetContainer) refers to tasks.o(i.xTaskRemoveFromEventList) for xTaskRemoveFromEventList
    queue.o(i.prvUnlockQueue) refers to port.o(i.vPortEnterCritical) for vPortEnterCritical
    queue.o(i.prvUnlockQueue) refers to queue.o(i.prvNotifyQueueSetContainer) for prvNotifyQueueSetContainer
    queue.o(i.prvUnlockQueue) refers to tasks.o(i.vTaskMissedYield) for vTaskMissedYield
    queue.o(i.prvUnlockQueue) refers to tasks.o(i.xTaskRemoveFromEventList) for xTaskRemoveFromEventList
    queue.o(i.prvUnlockQueue) refers to port.o(i.vPortExitCritical) for vPortExitCritical
    queue.o(i.uxQueueMessagesWaiting) refers to port.o(i.vPortEnterCritical) for vPortEnterCritical
    queue.o(i.uxQueueMessagesWaiting) refers to port.o(i.vPortExitCritical) for vPortExitCritical
    queue.o(i.uxQueueSpacesAvailable) refers to port.o(i.vPortEnterCritical) for vPortEnterCritical
    queue.o(i.uxQueueSpacesAvailable) refers to port.o(i.vPortExitCritical) for vPortExitCritical
    queue.o(i.vQueueDelete) refers to heap_4.o(i.vPortFree) for vPortFree
    queue.o(i.vQueueWaitForMessageRestricted) refers to port.o(i.vPortEnterCritical) for vPortEnterCritical
    queue.o(i.vQueueWaitForMessageRestricted) refers to port.o(i.vPortExitCritical) for vPortExitCritical
    queue.o(i.vQueueWaitForMessageRestricted) refers to tasks.o(i.vTaskPlaceOnEventListRestricted) for vTaskPlaceOnEventListRestricted
    queue.o(i.vQueueWaitForMessageRestricted) refers to queue.o(i.prvUnlockQueue) for prvUnlockQueue
    queue.o(i.xQueueAddToSet) refers to port.o(i.vPortEnterCritical) for vPortEnterCritical
    queue.o(i.xQueueAddToSet) refers to port.o(i.vPortExitCritical) for vPortExitCritical
    queue.o(i.xQueueCreateCountingSemaphore) refers to queue.o(i.xQueueGenericCreate) for xQueueGenericCreate
    queue.o(i.xQueueCreateMutex) refers to queue.o(i.xQueueGenericCreate) for xQueueGenericCreate
    queue.o(i.xQueueCreateMutex) refers to queue.o(i.prvInitialiseMutex) for prvInitialiseMutex
    queue.o(i.xQueueCreateSet) refers to queue.o(i.xQueueGenericCreate) for xQueueGenericCreate
    queue.o(i.xQueueGenericCreate) refers to heap_4.o(i.pvPortMalloc) for pvPortMalloc
    queue.o(i.xQueueGenericCreate) refers to queue.o(i.prvInitialiseNewQueue) for prvInitialiseNewQueue
    queue.o(i.xQueueGenericReset) refers to port.o(i.vPortEnterCritical) for vPortEnterCritical
    queue.o(i.xQueueGenericReset) refers to tasks.o(i.xTaskRemoveFromEventList) for xTaskRemoveFromEventList
    queue.o(i.xQueueGenericReset) refers to port.o(i.vPortYield) for vPortYield
    queue.o(i.xQueueGenericReset) refers to list.o(i.vListInitialise) for vListInitialise
    queue.o(i.xQueueGenericReset) refers to port.o(i.vPortExitCritical) for vPortExitCritical
    queue.o(i.xQueueGenericSend) refers to tasks.o(i.xTaskGetSchedulerState) for xTaskGetSchedulerState
    queue.o(i.xQueueGenericSend) refers to port.o(i.vPortEnterCritical) for vPortEnterCritical
    queue.o(i.xQueueGenericSend) refers to queue.o(i.prvCopyDataToQueue) for prvCopyDataToQueue
    queue.o(i.xQueueGenericSend) refers to queue.o(i.prvNotifyQueueSetContainer) for prvNotifyQueueSetContainer
    queue.o(i.xQueueGenericSend) refers to port.o(i.vPortYield) for vPortYield
    queue.o(i.xQueueGenericSend) refers to tasks.o(i.xTaskRemoveFromEventList) for xTaskRemoveFromEventList
    queue.o(i.xQueueGenericSend) refers to port.o(i.vPortExitCritical) for vPortExitCritical
    queue.o(i.xQueueGenericSend) refers to tasks.o(i.vTaskInternalSetTimeOutState) for vTaskInternalSetTimeOutState
    queue.o(i.xQueueGenericSend) refers to tasks.o(i.vTaskSuspendAll) for vTaskSuspendAll
    queue.o(i.xQueueGenericSend) refers to tasks.o(i.xTaskCheckForTimeOut) for xTaskCheckForTimeOut
    queue.o(i.xQueueGenericSend) refers to queue.o(i.prvIsQueueFull) for prvIsQueueFull
    queue.o(i.xQueueGenericSend) refers to tasks.o(i.vTaskPlaceOnEventList) for vTaskPlaceOnEventList
    queue.o(i.xQueueGenericSend) refers to queue.o(i.prvUnlockQueue) for prvUnlockQueue
    queue.o(i.xQueueGenericSend) refers to tasks.o(i.xTaskResumeAll) for xTaskResumeAll
    queue.o(i.xQueueGenericSendFromISR) refers to port.o(.emb_text) for ulSetInterruptMaskFromISR
    queue.o(i.xQueueGenericSendFromISR) refers to queue.o(i.prvCopyDataToQueue) for prvCopyDataToQueue
    queue.o(i.xQueueGenericSendFromISR) refers to queue.o(i.prvNotifyQueueSetContainer) for prvNotifyQueueSetContainer
    queue.o(i.xQueueGenericSendFromISR) refers to tasks.o(i.xTaskRemoveFromEventList) for xTaskRemoveFromEventList
    queue.o(i.xQueueGetMutexHolder) refers to port.o(i.vPortEnterCritical) for vPortEnterCritical
    queue.o(i.xQueueGetMutexHolder) refers to port.o(i.vPortExitCritical) for vPortExitCritical
    queue.o(i.xQueueGiveFromISR) refers to port.o(.emb_text) for ulSetInterruptMaskFromISR
    queue.o(i.xQueueGiveFromISR) refers to queue.o(i.prvNotifyQueueSetContainer) for prvNotifyQueueSetContainer
    queue.o(i.xQueueGiveFromISR) refers to tasks.o(i.xTaskRemoveFromEventList) for xTaskRemoveFromEventList
    queue.o(i.xQueueGiveMutexRecursive) refers to tasks.o(i.xTaskGetCurrentTaskHandle) for xTaskGetCurrentTaskHandle
    queue.o(i.xQueueGiveMutexRecursive) refers to queue.o(i.xQueueGenericSend) for xQueueGenericSend
    queue.o(i.xQueuePeek) refers to tasks.o(i.xTaskGetSchedulerState) for xTaskGetSchedulerState
    queue.o(i.xQueuePeek) refers to port.o(i.vPortEnterCritical) for vPortEnterCritical
    queue.o(i.xQueuePeek) refers to queue.o(i.prvCopyDataFromQueue) for prvCopyDataFromQueue
    queue.o(i.xQueuePeek) refers to tasks.o(i.xTaskRemoveFromEventList) for xTaskRemoveFromEventList
    queue.o(i.xQueuePeek) refers to port.o(i.vPortYield) for vPortYield
    queue.o(i.xQueuePeek) refers to port.o(i.vPortExitCritical) for vPortExitCritical
    queue.o(i.xQueuePeek) refers to tasks.o(i.vTaskInternalSetTimeOutState) for vTaskInternalSetTimeOutState
    queue.o(i.xQueuePeek) refers to tasks.o(i.vTaskSuspendAll) for vTaskSuspendAll
    queue.o(i.xQueuePeek) refers to tasks.o(i.xTaskCheckForTimeOut) for xTaskCheckForTimeOut
    queue.o(i.xQueuePeek) refers to queue.o(i.prvIsQueueEmpty) for prvIsQueueEmpty
    queue.o(i.xQueuePeek) refers to tasks.o(i.vTaskPlaceOnEventList) for vTaskPlaceOnEventList
    queue.o(i.xQueuePeek) refers to queue.o(i.prvUnlockQueue) for prvUnlockQueue
    queue.o(i.xQueuePeek) refers to tasks.o(i.xTaskResumeAll) for xTaskResumeAll
    queue.o(i.xQueuePeekFromISR) refers to port.o(.emb_text) for ulSetInterruptMaskFromISR
    queue.o(i.xQueuePeekFromISR) refers to queue.o(i.prvCopyDataFromQueue) for prvCopyDataFromQueue
    queue.o(i.xQueueReceive) refers to tasks.o(i.xTaskGetSchedulerState) for xTaskGetSchedulerState
    queue.o(i.xQueueReceive) refers to port.o(i.vPortEnterCritical) for vPortEnterCritical
    queue.o(i.xQueueReceive) refers to queue.o(i.prvCopyDataFromQueue) for prvCopyDataFromQueue
    queue.o(i.xQueueReceive) refers to tasks.o(i.xTaskRemoveFromEventList) for xTaskRemoveFromEventList
    queue.o(i.xQueueReceive) refers to port.o(i.vPortYield) for vPortYield
    queue.o(i.xQueueReceive) refers to port.o(i.vPortExitCritical) for vPortExitCritical
    queue.o(i.xQueueReceive) refers to tasks.o(i.vTaskInternalSetTimeOutState) for vTaskInternalSetTimeOutState
    queue.o(i.xQueueReceive) refers to tasks.o(i.vTaskSuspendAll) for vTaskSuspendAll
    queue.o(i.xQueueReceive) refers to tasks.o(i.xTaskCheckForTimeOut) for xTaskCheckForTimeOut
    queue.o(i.xQueueReceive) refers to queue.o(i.prvIsQueueEmpty) for prvIsQueueEmpty
    queue.o(i.xQueueReceive) refers to tasks.o(i.vTaskPlaceOnEventList) for vTaskPlaceOnEventList
    queue.o(i.xQueueReceive) refers to queue.o(i.prvUnlockQueue) for prvUnlockQueue
    queue.o(i.xQueueReceive) refers to tasks.o(i.xTaskResumeAll) for xTaskResumeAll
    queue.o(i.xQueueReceiveFromISR) refers to port.o(.emb_text) for ulSetInterruptMaskFromISR
    queue.o(i.xQueueReceiveFromISR) refers to queue.o(i.prvCopyDataFromQueue) for prvCopyDataFromQueue
    queue.o(i.xQueueReceiveFromISR) refers to tasks.o(i.xTaskRemoveFromEventList) for xTaskRemoveFromEventList
    queue.o(i.xQueueRemoveFromSet) refers to port.o(i.vPortEnterCritical) for vPortEnterCritical
    queue.o(i.xQueueRemoveFromSet) refers to port.o(i.vPortExitCritical) for vPortExitCritical
    queue.o(i.xQueueSelectFromSet) refers to queue.o(i.xQueueReceive) for xQueueReceive
    queue.o(i.xQueueSelectFromSetFromISR) refers to queue.o(i.xQueueReceiveFromISR) for xQueueReceiveFromISR
    queue.o(i.xQueueSemaphoreTake) refers to tasks.o(i.xTaskGetSchedulerState) for xTaskGetSchedulerState
    queue.o(i.xQueueSemaphoreTake) refers to port.o(i.vPortEnterCritical) for vPortEnterCritical
    queue.o(i.xQueueSemaphoreTake) refers to tasks.o(i.pvTaskIncrementMutexHeldCount) for pvTaskIncrementMutexHeldCount
    queue.o(i.xQueueSemaphoreTake) refers to tasks.o(i.xTaskRemoveFromEventList) for xTaskRemoveFromEventList
    queue.o(i.xQueueSemaphoreTake) refers to port.o(i.vPortYield) for vPortYield
    queue.o(i.xQueueSemaphoreTake) refers to port.o(i.vPortExitCritical) for vPortExitCritical
    queue.o(i.xQueueSemaphoreTake) refers to tasks.o(i.vTaskInternalSetTimeOutState) for vTaskInternalSetTimeOutState
    queue.o(i.xQueueSemaphoreTake) refers to tasks.o(i.vTaskSuspendAll) for vTaskSuspendAll
    queue.o(i.xQueueSemaphoreTake) refers to tasks.o(i.xTaskCheckForTimeOut) for xTaskCheckForTimeOut
    queue.o(i.xQueueSemaphoreTake) refers to queue.o(i.prvIsQueueEmpty) for prvIsQueueEmpty
    queue.o(i.xQueueSemaphoreTake) refers to tasks.o(i.xTaskPriorityInherit) for xTaskPriorityInherit
    queue.o(i.xQueueSemaphoreTake) refers to tasks.o(i.vTaskPlaceOnEventList) for vTaskPlaceOnEventList
    queue.o(i.xQueueSemaphoreTake) refers to queue.o(i.prvUnlockQueue) for prvUnlockQueue
    queue.o(i.xQueueSemaphoreTake) refers to tasks.o(i.xTaskResumeAll) for xTaskResumeAll
    queue.o(i.xQueueSemaphoreTake) refers to queue.o(i.prvGetDisinheritPriorityAfterTimeout) for prvGetDisinheritPriorityAfterTimeout
    queue.o(i.xQueueSemaphoreTake) refers to tasks.o(i.vTaskPriorityDisinheritAfterTimeout) for vTaskPriorityDisinheritAfterTimeout
    queue.o(i.xQueueTakeMutexRecursive) refers to tasks.o(i.xTaskGetCurrentTaskHandle) for xTaskGetCurrentTaskHandle
    queue.o(i.xQueueTakeMutexRecursive) refers to queue.o(i.xQueueSemaphoreTake) for xQueueSemaphoreTake
    tasks.o(i.eTaskConfirmSleepModeStatus) refers to tasks.o(.bss) for xPendingReadyList
    tasks.o(i.eTaskConfirmSleepModeStatus) refers to tasks.o(.data) for xYieldPending
    tasks.o(i.eTaskGetState) refers to port.o(i.vPortEnterCritical) for vPortEnterCritical
    tasks.o(i.eTaskGetState) refers to port.o(i.vPortExitCritical) for vPortExitCritical
    tasks.o(i.eTaskGetState) refers to tasks.o(.data) for pxCurrentTCB
    tasks.o(i.eTaskGetState) refers to tasks.o(.bss) for xSuspendedTaskList
    tasks.o(i.pcTaskGetName) refers to tasks.o(.data) for pxCurrentTCB
    tasks.o(i.prvAddCurrentTaskToDelayedList) refers to list.o(i.uxListRemove) for uxListRemove
    tasks.o(i.prvAddCurrentTaskToDelayedList) refers to list.o(i.vListInsertEnd) for vListInsertEnd
    tasks.o(i.prvAddCurrentTaskToDelayedList) refers to list.o(i.vListInsert) for vListInsert
    tasks.o(i.prvAddCurrentTaskToDelayedList) refers to tasks.o(.data) for xTickCount
    tasks.o(i.prvAddCurrentTaskToDelayedList) refers to tasks.o(.bss) for xSuspendedTaskList
    tasks.o(i.prvAddNewTaskToReadyList) refers to port.o(i.vPortEnterCritical) for vPortEnterCritical
    tasks.o(i.prvAddNewTaskToReadyList) refers to tasks.o(i.prvInitialiseTaskLists) for prvInitialiseTaskLists
    tasks.o(i.prvAddNewTaskToReadyList) refers to list.o(i.vListInsertEnd) for vListInsertEnd
    tasks.o(i.prvAddNewTaskToReadyList) refers to port.o(i.vPortExitCritical) for vPortExitCritical
    tasks.o(i.prvAddNewTaskToReadyList) refers to port.o(i.vPortYield) for vPortYield
    tasks.o(i.prvAddNewTaskToReadyList) refers to tasks.o(.data) for uxCurrentNumberOfTasks
    tasks.o(i.prvAddNewTaskToReadyList) refers to tasks.o(.bss) for pxReadyTasksLists
    tasks.o(i.prvCheckTasksWaitingTermination) refers to port.o(i.vPortEnterCritical) for vPortEnterCritical
    tasks.o(i.prvCheckTasksWaitingTermination) refers to list.o(i.uxListRemove) for uxListRemove
    tasks.o(i.prvCheckTasksWaitingTermination) refers to port.o(i.vPortExitCritical) for vPortExitCritical
    tasks.o(i.prvCheckTasksWaitingTermination) refers to tasks.o(i.prvDeleteTCB) for prvDeleteTCB
    tasks.o(i.prvCheckTasksWaitingTermination) refers to tasks.o(.bss) for xTasksWaitingTermination
    tasks.o(i.prvCheckTasksWaitingTermination) refers to tasks.o(.data) for uxCurrentNumberOfTasks
    tasks.o(i.prvDeleteTCB) refers to heap_4.o(i.vPortFree) for vPortFree
    tasks.o(i.prvGetExpectedIdleTime) refers to tasks.o(.data) for uxTopReadyPriority
    tasks.o(i.prvGetExpectedIdleTime) refers to tasks.o(.bss) for pxReadyTasksLists
    tasks.o(i.prvIdleTask) refers to tasks.o(i.prvCheckTasksWaitingTermination) for prvCheckTasksWaitingTermination
    tasks.o(i.prvIdleTask) refers to tasks.o(i.prvGetExpectedIdleTime) for prvGetExpectedIdleTime
    tasks.o(i.prvIdleTask) refers to tasks.o(i.vTaskSuspendAll) for vTaskSuspendAll
    tasks.o(i.prvIdleTask) refers to port.o(i.vPortSuppressTicksAndSleep) for vPortSuppressTicksAndSleep
    tasks.o(i.prvIdleTask) refers to tasks.o(i.xTaskResumeAll) for xTaskResumeAll
    tasks.o(i.prvIdleTask) refers to tasks.o(.data) for xNextTaskUnblockTime
    tasks.o(i.prvInitialiseNewTask) refers to memseta.o(.text) for __aeabi_memset
    tasks.o(i.prvInitialiseNewTask) refers to list.o(i.vListInitialiseItem) for vListInitialiseItem
    tasks.o(i.prvInitialiseNewTask) refers to port.o(i.pxPortInitialiseStack) for pxPortInitialiseStack
    tasks.o(i.prvInitialiseTaskLists) refers to list.o(i.vListInitialise) for vListInitialise
    tasks.o(i.prvInitialiseTaskLists) refers to tasks.o(.bss) for pxReadyTasksLists
    tasks.o(i.prvInitialiseTaskLists) refers to tasks.o(.data) for pxDelayedTaskList
    tasks.o(i.prvListTasksWithinSingleList) refers to tasks.o(i.vTaskGetInfo) for vTaskGetInfo
    tasks.o(i.prvResetNextTaskUnblockTime) refers to tasks.o(.data) for pxDelayedTaskList
    tasks.o(i.prvTaskIsTaskSuspended) refers to tasks.o(.bss) for xSuspendedTaskList
    tasks.o(i.pvTaskIncrementMutexHeldCount) refers to tasks.o(.data) for pxCurrentTCB
    tasks.o(i.ulTaskNotifyTake) refers to port.o(i.vPortEnterCritical) for vPortEnterCritical
    tasks.o(i.ulTaskNotifyTake) refers to tasks.o(i.prvAddCurrentTaskToDelayedList) for prvAddCurrentTaskToDelayedList
    tasks.o(i.ulTaskNotifyTake) refers to port.o(i.vPortYield) for vPortYield
    tasks.o(i.ulTaskNotifyTake) refers to port.o(i.vPortExitCritical) for vPortExitCritical
    tasks.o(i.ulTaskNotifyTake) refers to tasks.o(.data) for pxCurrentTCB
    tasks.o(i.ulTaskNotifyValueClear) refers to port.o(i.vPortEnterCritical) for vPortEnterCritical
    tasks.o(i.ulTaskNotifyValueClear) refers to port.o(i.vPortExitCritical) for vPortExitCritical
    tasks.o(i.ulTaskNotifyValueClear) refers to tasks.o(.data) for pxCurrentTCB
    tasks.o(i.uxTaskGetNumberOfTasks) refers to tasks.o(.data) for uxCurrentNumberOfTasks
    tasks.o(i.uxTaskGetStackHighWaterMark) refers to tasks.o(i.prvTaskCheckFreeStackSpace) for prvTaskCheckFreeStackSpace
    tasks.o(i.uxTaskGetStackHighWaterMark) refers to tasks.o(.data) for pxCurrentTCB
    tasks.o(i.uxTaskGetStackHighWaterMark2) refers to tasks.o(i.prvTaskCheckFreeStackSpace) for prvTaskCheckFreeStackSpace
    tasks.o(i.uxTaskGetStackHighWaterMark2) refers to tasks.o(.data) for pxCurrentTCB
    tasks.o(i.uxTaskGetSystemState) refers to tasks.o(i.vTaskSuspendAll) for vTaskSuspendAll
    tasks.o(i.uxTaskGetSystemState) refers to tasks.o(i.prvListTasksWithinSingleList) for prvListTasksWithinSingleList
    tasks.o(i.uxTaskGetSystemState) refers to tasks.o(i.xTaskResumeAll) for xTaskResumeAll
    tasks.o(i.uxTaskGetSystemState) refers to tasks.o(.data) for uxCurrentNumberOfTasks
    tasks.o(i.uxTaskGetSystemState) refers to tasks.o(.bss) for pxReadyTasksLists
    tasks.o(i.uxTaskPriorityGet) refers to port.o(i.vPortEnterCritical) for vPortEnterCritical
    tasks.o(i.uxTaskPriorityGet) refers to port.o(i.vPortExitCritical) for vPortExitCritical
    tasks.o(i.uxTaskPriorityGet) refers to tasks.o(.data) for pxCurrentTCB
    tasks.o(i.uxTaskPriorityGetFromISR) refers to port.o(.emb_text) for ulSetInterruptMaskFromISR
    tasks.o(i.uxTaskPriorityGetFromISR) refers to tasks.o(.data) for pxCurrentTCB
    tasks.o(i.uxTaskResetEventItemValue) refers to tasks.o(.data) for pxCurrentTCB
    tasks.o(i.vTaskDelay) refers to tasks.o(i.vTaskSuspendAll) for vTaskSuspendAll
    tasks.o(i.vTaskDelay) refers to tasks.o(i.prvAddCurrentTaskToDelayedList) for prvAddCurrentTaskToDelayedList
    tasks.o(i.vTaskDelay) refers to tasks.o(i.xTaskResumeAll) for xTaskResumeAll
    tasks.o(i.vTaskDelay) refers to port.o(i.vPortYield) for vPortYield
    tasks.o(i.vTaskDelay) refers to tasks.o(.data) for uxSchedulerSuspended
    tasks.o(i.vTaskDelayUntil) refers to tasks.o(i.vTaskSuspendAll) for vTaskSuspendAll
    tasks.o(i.vTaskDelayUntil) refers to tasks.o(i.prvAddCurrentTaskToDelayedList) for prvAddCurrentTaskToDelayedList
    tasks.o(i.vTaskDelayUntil) refers to tasks.o(i.xTaskResumeAll) for xTaskResumeAll
    tasks.o(i.vTaskDelayUntil) refers to port.o(i.vPortYield) for vPortYield
    tasks.o(i.vTaskDelayUntil) refers to tasks.o(.data) for uxSchedulerSuspended
    tasks.o(i.vTaskDelete) refers to port.o(i.vPortEnterCritical) for vPortEnterCritical
    tasks.o(i.vTaskDelete) refers to list.o(i.uxListRemove) for uxListRemove
    tasks.o(i.vTaskDelete) refers to list.o(i.vListInsertEnd) for vListInsertEnd
    tasks.o(i.vTaskDelete) refers to tasks.o(i.prvDeleteTCB) for prvDeleteTCB
    tasks.o(i.vTaskDelete) refers to tasks.o(i.prvResetNextTaskUnblockTime) for prvResetNextTaskUnblockTime
    tasks.o(i.vTaskDelete) refers to port.o(i.vPortExitCritical) for vPortExitCritical
    tasks.o(i.vTaskDelete) refers to port.o(i.vPortYield) for vPortYield
    tasks.o(i.vTaskDelete) refers to tasks.o(.data) for pxCurrentTCB
    tasks.o(i.vTaskDelete) refers to tasks.o(.bss) for xTasksWaitingTermination
    tasks.o(i.vTaskEndScheduler) refers to port.o(i.vPortEndScheduler) for vPortEndScheduler
    tasks.o(i.vTaskEndScheduler) refers to tasks.o(.data) for xSchedulerRunning
    tasks.o(i.vTaskGetInfo) refers to tasks.o(i.vTaskSuspendAll) for vTaskSuspendAll
    tasks.o(i.vTaskGetInfo) refers to tasks.o(i.xTaskResumeAll) for xTaskResumeAll
    tasks.o(i.vTaskGetInfo) refers to tasks.o(i.eTaskGetState) for eTaskGetState
    tasks.o(i.vTaskGetInfo) refers to tasks.o(i.prvTaskCheckFreeStackSpace) for prvTaskCheckFreeStackSpace
    tasks.o(i.vTaskGetInfo) refers to tasks.o(.data) for pxCurrentTCB
    tasks.o(i.vTaskInternalSetTimeOutState) refers to tasks.o(.data) for xNumOfOverflows
    tasks.o(i.vTaskMissedYield) refers to tasks.o(.data) for xYieldPending
    tasks.o(i.vTaskNotifyGiveFromISR) refers to port.o(.emb_text) for ulSetInterruptMaskFromISR
    tasks.o(i.vTaskNotifyGiveFromISR) refers to list.o(i.uxListRemove) for uxListRemove
    tasks.o(i.vTaskNotifyGiveFromISR) refers to list.o(i.vListInsertEnd) for vListInsertEnd
    tasks.o(i.vTaskNotifyGiveFromISR) refers to tasks.o(.data) for uxSchedulerSuspended
    tasks.o(i.vTaskNotifyGiveFromISR) refers to tasks.o(.bss) for pxReadyTasksLists
    tasks.o(i.vTaskPlaceOnEventList) refers to list.o(i.vListInsert) for vListInsert
    tasks.o(i.vTaskPlaceOnEventList) refers to tasks.o(i.prvAddCurrentTaskToDelayedList) for prvAddCurrentTaskToDelayedList
    tasks.o(i.vTaskPlaceOnEventList) refers to tasks.o(.data) for pxCurrentTCB
    tasks.o(i.vTaskPlaceOnEventListRestricted) refers to list.o(i.vListInsertEnd) for vListInsertEnd
    tasks.o(i.vTaskPlaceOnEventListRestricted) refers to tasks.o(i.prvAddCurrentTaskToDelayedList) for prvAddCurrentTaskToDelayedList
    tasks.o(i.vTaskPlaceOnEventListRestricted) refers to tasks.o(.data) for pxCurrentTCB
    tasks.o(i.vTaskPlaceOnUnorderedEventList) refers to list.o(i.vListInsertEnd) for vListInsertEnd
    tasks.o(i.vTaskPlaceOnUnorderedEventList) refers to tasks.o(i.prvAddCurrentTaskToDelayedList) for prvAddCurrentTaskToDelayedList
    tasks.o(i.vTaskPlaceOnUnorderedEventList) refers to tasks.o(.data) for uxSchedulerSuspended
    tasks.o(i.vTaskPriorityDisinheritAfterTimeout) refers to list.o(i.uxListRemove) for uxListRemove
    tasks.o(i.vTaskPriorityDisinheritAfterTimeout) refers to list.o(i.vListInsertEnd) for vListInsertEnd
    tasks.o(i.vTaskPriorityDisinheritAfterTimeout) refers to tasks.o(.data) for pxCurrentTCB
    tasks.o(i.vTaskPriorityDisinheritAfterTimeout) refers to tasks.o(.bss) for pxReadyTasksLists
    tasks.o(i.vTaskPrioritySet) refers to port.o(i.vPortEnterCritical) for vPortEnterCritical
    tasks.o(i.vTaskPrioritySet) refers to list.o(i.uxListRemove) for uxListRemove
    tasks.o(i.vTaskPrioritySet) refers to list.o(i.vListInsertEnd) for vListInsertEnd
    tasks.o(i.vTaskPrioritySet) refers to port.o(i.vPortYield) for vPortYield
    tasks.o(i.vTaskPrioritySet) refers to port.o(i.vPortExitCritical) for vPortExitCritical
    tasks.o(i.vTaskPrioritySet) refers to tasks.o(.data) for pxCurrentTCB
    tasks.o(i.vTaskPrioritySet) refers to tasks.o(.bss) for pxReadyTasksLists
    tasks.o(i.vTaskRemoveFromUnorderedEventList) refers to list.o(i.uxListRemove) for uxListRemove
    tasks.o(i.vTaskRemoveFromUnorderedEventList) refers to tasks.o(i.prvResetNextTaskUnblockTime) for prvResetNextTaskUnblockTime
    tasks.o(i.vTaskRemoveFromUnorderedEventList) refers to list.o(i.vListInsertEnd) for vListInsertEnd
    tasks.o(i.vTaskRemoveFromUnorderedEventList) refers to tasks.o(.data) for uxSchedulerSuspended
    tasks.o(i.vTaskRemoveFromUnorderedEventList) refers to tasks.o(.bss) for pxReadyTasksLists
    tasks.o(i.vTaskResume) refers to port.o(i.vPortEnterCritical) for vPortEnterCritical
    tasks.o(i.vTaskResume) refers to tasks.o(i.prvTaskIsTaskSuspended) for prvTaskIsTaskSuspended
    tasks.o(i.vTaskResume) refers to list.o(i.uxListRemove) for uxListRemove
    tasks.o(i.vTaskResume) refers to list.o(i.vListInsertEnd) for vListInsertEnd
    tasks.o(i.vTaskResume) refers to port.o(i.vPortYield) for vPortYield
    tasks.o(i.vTaskResume) refers to port.o(i.vPortExitCritical) for vPortExitCritical
    tasks.o(i.vTaskResume) refers to tasks.o(.data) for pxCurrentTCB
    tasks.o(i.vTaskResume) refers to tasks.o(.bss) for pxReadyTasksLists
    tasks.o(i.vTaskSetTimeOutState) refers to port.o(i.vPortEnterCritical) for vPortEnterCritical
    tasks.o(i.vTaskSetTimeOutState) refers to port.o(i.vPortExitCritical) for vPortExitCritical
    tasks.o(i.vTaskSetTimeOutState) refers to tasks.o(.data) for xNumOfOverflows
    tasks.o(i.vTaskStartScheduler) refers to tasks.o(i.xTaskCreate) for xTaskCreate
    tasks.o(i.vTaskStartScheduler) refers to timers.o(i.xTimerCreateTimerTask) for xTimerCreateTimerTask
    tasks.o(i.vTaskStartScheduler) refers to port.o(i.xPortStartScheduler) for xPortStartScheduler
    tasks.o(i.vTaskStartScheduler) refers to tasks.o(.data) for xIdleTaskHandle
    tasks.o(i.vTaskStartScheduler) refers to tasks.o(i.prvIdleTask) for prvIdleTask
    tasks.o(i.vTaskStepTick) refers to tasks.o(.data) for xTickCount
    tasks.o(i.vTaskSuspend) refers to port.o(i.vPortEnterCritical) for vPortEnterCritical
    tasks.o(i.vTaskSuspend) refers to list.o(i.uxListRemove) for uxListRemove
    tasks.o(i.vTaskSuspend) refers to list.o(i.vListInsertEnd) for vListInsertEnd
    tasks.o(i.vTaskSuspend) refers to port.o(i.vPortExitCritical) for vPortExitCritical
    tasks.o(i.vTaskSuspend) refers to tasks.o(i.prvResetNextTaskUnblockTime) for prvResetNextTaskUnblockTime
    tasks.o(i.vTaskSuspend) refers to port.o(i.vPortYield) for vPortYield
    tasks.o(i.vTaskSuspend) refers to tasks.o(i.vTaskSwitchContext) for vTaskSwitchContext
    tasks.o(i.vTaskSuspend) refers to tasks.o(.data) for pxCurrentTCB
    tasks.o(i.vTaskSuspend) refers to tasks.o(.bss) for xSuspendedTaskList
    tasks.o(i.vTaskSuspendAll) refers to tasks.o(.data) for uxSchedulerSuspended
    tasks.o(i.vTaskSwitchContext) refers to tasks.o(.data) for uxSchedulerSuspended
    tasks.o(i.vTaskSwitchContext) refers to tasks.o(.bss) for pxReadyTasksLists
    tasks.o(i.xTaskAbortDelay) refers to tasks.o(i.vTaskSuspendAll) for vTaskSuspendAll
    tasks.o(i.xTaskAbortDelay) refers to tasks.o(i.eTaskGetState) for eTaskGetState
    tasks.o(i.xTaskAbortDelay) refers to list.o(i.uxListRemove) for uxListRemove
    tasks.o(i.xTaskAbortDelay) refers to port.o(i.vPortEnterCritical) for vPortEnterCritical
    tasks.o(i.xTaskAbortDelay) refers to port.o(i.vPortExitCritical) for vPortExitCritical
    tasks.o(i.xTaskAbortDelay) refers to list.o(i.vListInsertEnd) for vListInsertEnd
    tasks.o(i.xTaskAbortDelay) refers to tasks.o(i.xTaskResumeAll) for xTaskResumeAll
    tasks.o(i.xTaskAbortDelay) refers to tasks.o(.data) for uxTopReadyPriority
    tasks.o(i.xTaskAbortDelay) refers to tasks.o(.bss) for pxReadyTasksLists
    tasks.o(i.xTaskCatchUpTicks) refers to tasks.o(i.vTaskSuspendAll) for vTaskSuspendAll
    tasks.o(i.xTaskCatchUpTicks) refers to tasks.o(i.xTaskResumeAll) for xTaskResumeAll
    tasks.o(i.xTaskCatchUpTicks) refers to tasks.o(.data) for uxSchedulerSuspended
    tasks.o(i.xTaskCheckForTimeOut) refers to port.o(i.vPortEnterCritical) for vPortEnterCritical
    tasks.o(i.xTaskCheckForTimeOut) refers to tasks.o(i.vTaskInternalSetTimeOutState) for vTaskInternalSetTimeOutState
    tasks.o(i.xTaskCheckForTimeOut) refers to port.o(i.vPortExitCritical) for vPortExitCritical
    tasks.o(i.xTaskCheckForTimeOut) refers to tasks.o(.data) for xTickCount
    tasks.o(i.xTaskCreate) refers to heap_4.o(i.pvPortMalloc) for pvPortMalloc
    tasks.o(i.xTaskCreate) refers to heap_4.o(i.vPortFree) for vPortFree
    tasks.o(i.xTaskCreate) refers to tasks.o(i.prvInitialiseNewTask) for prvInitialiseNewTask
    tasks.o(i.xTaskCreate) refers to tasks.o(i.prvAddNewTaskToReadyList) for prvAddNewTaskToReadyList
    tasks.o(i.xTaskGenericNotify) refers to port.o(i.vPortEnterCritical) for vPortEnterCritical
    tasks.o(i.xTaskGenericNotify) refers to iic.o(i.__ARM_common_switch8) for __ARM_common_switch8
    tasks.o(i.xTaskGenericNotify) refers to list.o(i.uxListRemove) for uxListRemove
    tasks.o(i.xTaskGenericNotify) refers to list.o(i.vListInsertEnd) for vListInsertEnd
    tasks.o(i.xTaskGenericNotify) refers to tasks.o(i.prvResetNextTaskUnblockTime) for prvResetNextTaskUnblockTime
    tasks.o(i.xTaskGenericNotify) refers to port.o(i.vPortYield) for vPortYield
    tasks.o(i.xTaskGenericNotify) refers to port.o(i.vPortExitCritical) for vPortExitCritical
    tasks.o(i.xTaskGenericNotify) refers to tasks.o(.data) for uxTopReadyPriority
    tasks.o(i.xTaskGenericNotify) refers to tasks.o(.bss) for pxReadyTasksLists
    tasks.o(i.xTaskGenericNotifyFromISR) refers to port.o(.emb_text) for ulSetInterruptMaskFromISR
    tasks.o(i.xTaskGenericNotifyFromISR) refers to iic.o(i.__ARM_common_switch8) for __ARM_common_switch8
    tasks.o(i.xTaskGenericNotifyFromISR) refers to list.o(i.uxListRemove) for uxListRemove
    tasks.o(i.xTaskGenericNotifyFromISR) refers to list.o(i.vListInsertEnd) for vListInsertEnd
    tasks.o(i.xTaskGenericNotifyFromISR) refers to tasks.o(.data) for uxSchedulerSuspended
    tasks.o(i.xTaskGenericNotifyFromISR) refers to tasks.o(.bss) for pxReadyTasksLists
    tasks.o(i.xTaskGetCurrentTaskHandle) refers to tasks.o(.data) for pxCurrentTCB
    tasks.o(i.xTaskGetHandle) refers to strlen.o(.text) for strlen
    tasks.o(i.xTaskGetHandle) refers to tasks.o(i.vTaskSuspendAll) for vTaskSuspendAll
    tasks.o(i.xTaskGetHandle) refers to tasks.o(i.prvSearchForNameWithinSingleList) for prvSearchForNameWithinSingleList
    tasks.o(i.xTaskGetHandle) refers to tasks.o(i.xTaskResumeAll) for xTaskResumeAll
    tasks.o(i.xTaskGetHandle) refers to tasks.o(.bss) for pxReadyTasksLists
    tasks.o(i.xTaskGetHandle) refers to tasks.o(.data) for pxDelayedTaskList
    tasks.o(i.xTaskGetIdleTaskHandle) refers to tasks.o(.data) for xIdleTaskHandle
    tasks.o(i.xTaskGetSchedulerState) refers to tasks.o(.data) for xSchedulerRunning
    tasks.o(i.xTaskGetTickCount) refers to tasks.o(.data) for xTickCount
    tasks.o(i.xTaskGetTickCountFromISR) refers to tasks.o(.data) for xTickCount
    tasks.o(i.xTaskIncrementTick) refers to tasks.o(i.prvResetNextTaskUnblockTime) for prvResetNextTaskUnblockTime
    tasks.o(i.xTaskIncrementTick) refers to list.o(i.uxListRemove) for uxListRemove
    tasks.o(i.xTaskIncrementTick) refers to list.o(i.vListInsertEnd) for vListInsertEnd
    tasks.o(i.xTaskIncrementTick) refers to tasks.o(.data) for uxSchedulerSuspended
    tasks.o(i.xTaskIncrementTick) refers to tasks.o(.bss) for pxReadyTasksLists
    tasks.o(i.xTaskNotifyStateClear) refers to port.o(i.vPortEnterCritical) for vPortEnterCritical
    tasks.o(i.xTaskNotifyStateClear) refers to port.o(i.vPortExitCritical) for vPortExitCritical
    tasks.o(i.xTaskNotifyStateClear) refers to tasks.o(.data) for pxCurrentTCB
    tasks.o(i.xTaskNotifyWait) refers to port.o(i.vPortEnterCritical) for vPortEnterCritical
    tasks.o(i.xTaskNotifyWait) refers to tasks.o(i.prvAddCurrentTaskToDelayedList) for prvAddCurrentTaskToDelayedList
    tasks.o(i.xTaskNotifyWait) refers to port.o(i.vPortYield) for vPortYield
    tasks.o(i.xTaskNotifyWait) refers to port.o(i.vPortExitCritical) for vPortExitCritical
    tasks.o(i.xTaskNotifyWait) refers to tasks.o(.data) for pxCurrentTCB
    tasks.o(i.xTaskPriorityDisinherit) refers to list.o(i.uxListRemove) for uxListRemove
    tasks.o(i.xTaskPriorityDisinherit) refers to list.o(i.vListInsertEnd) for vListInsertEnd
    tasks.o(i.xTaskPriorityDisinherit) refers to tasks.o(.data) for pxCurrentTCB
    tasks.o(i.xTaskPriorityDisinherit) refers to tasks.o(.bss) for pxReadyTasksLists
    tasks.o(i.xTaskPriorityInherit) refers to list.o(i.uxListRemove) for uxListRemove
    tasks.o(i.xTaskPriorityInherit) refers to list.o(i.vListInsertEnd) for vListInsertEnd
    tasks.o(i.xTaskPriorityInherit) refers to tasks.o(.data) for pxCurrentTCB
    tasks.o(i.xTaskPriorityInherit) refers to tasks.o(.bss) for pxReadyTasksLists
    tasks.o(i.xTaskRemoveFromEventList) refers to list.o(i.uxListRemove) for uxListRemove
    tasks.o(i.xTaskRemoveFromEventList) refers to list.o(i.vListInsertEnd) for vListInsertEnd
    tasks.o(i.xTaskRemoveFromEventList) refers to tasks.o(i.prvResetNextTaskUnblockTime) for prvResetNextTaskUnblockTime
    tasks.o(i.xTaskRemoveFromEventList) refers to tasks.o(.data) for uxSchedulerSuspended
    tasks.o(i.xTaskRemoveFromEventList) refers to tasks.o(.bss) for pxReadyTasksLists
    tasks.o(i.xTaskResumeAll) refers to port.o(i.vPortEnterCritical) for vPortEnterCritical
    tasks.o(i.xTaskResumeAll) refers to list.o(i.uxListRemove) for uxListRemove
    tasks.o(i.xTaskResumeAll) refers to list.o(i.vListInsertEnd) for vListInsertEnd
    tasks.o(i.xTaskResumeAll) refers to tasks.o(i.prvResetNextTaskUnblockTime) for prvResetNextTaskUnblockTime
    tasks.o(i.xTaskResumeAll) refers to tasks.o(i.xTaskIncrementTick) for xTaskIncrementTick
    tasks.o(i.xTaskResumeAll) refers to port.o(i.vPortYield) for vPortYield
    tasks.o(i.xTaskResumeAll) refers to port.o(i.vPortExitCritical) for vPortExitCritical
    tasks.o(i.xTaskResumeAll) refers to tasks.o(.data) for uxSchedulerSuspended
    tasks.o(i.xTaskResumeAll) refers to tasks.o(.bss) for xPendingReadyList
    tasks.o(i.xTaskResumeFromISR) refers to port.o(.emb_text) for ulSetInterruptMaskFromISR
    tasks.o(i.xTaskResumeFromISR) refers to tasks.o(i.prvTaskIsTaskSuspended) for prvTaskIsTaskSuspended
    tasks.o(i.xTaskResumeFromISR) refers to list.o(i.uxListRemove) for uxListRemove
    tasks.o(i.xTaskResumeFromISR) refers to list.o(i.vListInsertEnd) for vListInsertEnd
    tasks.o(i.xTaskResumeFromISR) refers to tasks.o(.data) for uxSchedulerSuspended
    tasks.o(i.xTaskResumeFromISR) refers to tasks.o(.bss) for pxReadyTasksLists
    timers.o(i.prvCheckForValidListAndQueue) refers to port.o(i.vPortEnterCritical) for vPortEnterCritical
    timers.o(i.prvCheckForValidListAndQueue) refers to list.o(i.vListInitialise) for vListInitialise
    timers.o(i.prvCheckForValidListAndQueue) refers to queue.o(i.xQueueGenericCreate) for xQueueGenericCreate
    timers.o(i.prvCheckForValidListAndQueue) refers to port.o(i.vPortExitCritical) for vPortExitCritical
    timers.o(i.prvCheckForValidListAndQueue) refers to timers.o(.data) for xTimerQueue
    timers.o(i.prvCheckForValidListAndQueue) refers to timers.o(.bss) for xActiveTimerList1
    timers.o(i.prvGetNextExpireTime) refers to timers.o(.data) for pxCurrentTimerList
    timers.o(i.prvInitialiseNewTimer) refers to timers.o(i.prvCheckForValidListAndQueue) for prvCheckForValidListAndQueue
    timers.o(i.prvInitialiseNewTimer) refers to list.o(i.vListInitialiseItem) for vListInitialiseItem
    timers.o(i.prvInsertTimerInActiveList) refers to list.o(i.vListInsert) for vListInsert
    timers.o(i.prvInsertTimerInActiveList) refers to timers.o(.data) for pxOverflowTimerList
    timers.o(i.prvProcessExpiredTimer) refers to list.o(i.uxListRemove) for uxListRemove
    timers.o(i.prvProcessExpiredTimer) refers to timers.o(i.prvInsertTimerInActiveList) for prvInsertTimerInActiveList
    timers.o(i.prvProcessExpiredTimer) refers to timers.o(i.xTimerGenericCommand) for xTimerGenericCommand
    timers.o(i.prvProcessExpiredTimer) refers to timers.o(.data) for pxCurrentTimerList
    timers.o(i.prvProcessReceivedCommands) refers to list.o(i.uxListRemove) for uxListRemove
    timers.o(i.prvProcessReceivedCommands) refers to timers.o(i.prvSampleTimeNow) for prvSampleTimeNow
    timers.o(i.prvProcessReceivedCommands) refers to iic.o(i.__ARM_common_switch8) for __ARM_common_switch8
    timers.o(i.prvProcessReceivedCommands) refers to timers.o(i.prvInsertTimerInActiveList) for prvInsertTimerInActiveList
    timers.o(i.prvProcessReceivedCommands) refers to timers.o(i.xTimerGenericCommand) for xTimerGenericCommand
    timers.o(i.prvProcessReceivedCommands) refers to heap_4.o(i.vPortFree) for vPortFree
    timers.o(i.prvProcessReceivedCommands) refers to queue.o(i.xQueueReceive) for xQueueReceive
    timers.o(i.prvProcessReceivedCommands) refers to timers.o(.data) for xTimerQueue
    timers.o(i.prvProcessTimerOrBlockTask) refers to tasks.o(i.vTaskSuspendAll) for vTaskSuspendAll
    timers.o(i.prvProcessTimerOrBlockTask) refers to timers.o(i.prvSampleTimeNow) for prvSampleTimeNow
    timers.o(i.prvProcessTimerOrBlockTask) refers to tasks.o(i.xTaskResumeAll) for xTaskResumeAll
    timers.o(i.prvProcessTimerOrBlockTask) refers to timers.o(i.prvProcessExpiredTimer) for prvProcessExpiredTimer
    timers.o(i.prvProcessTimerOrBlockTask) refers to queue.o(i.vQueueWaitForMessageRestricted) for vQueueWaitForMessageRestricted
    timers.o(i.prvProcessTimerOrBlockTask) refers to port.o(i.vPortYield) for vPortYield
    timers.o(i.prvProcessTimerOrBlockTask) refers to timers.o(.data) for pxOverflowTimerList
    timers.o(i.prvSampleTimeNow) refers to tasks.o(i.xTaskGetTickCount) for xTaskGetTickCount
    timers.o(i.prvSampleTimeNow) refers to timers.o(i.prvSwitchTimerLists) for prvSwitchTimerLists
    timers.o(i.prvSampleTimeNow) refers to timers.o(.data) for xLastTime
    timers.o(i.prvSwitchTimerLists) refers to list.o(i.uxListRemove) for uxListRemove
    timers.o(i.prvSwitchTimerLists) refers to list.o(i.vListInsert) for vListInsert
    timers.o(i.prvSwitchTimerLists) refers to timers.o(i.xTimerGenericCommand) for xTimerGenericCommand
    timers.o(i.prvSwitchTimerLists) refers to timers.o(.data) for pxCurrentTimerList
    timers.o(i.prvTimerTask) refers to timers.o(i.prvGetNextExpireTime) for prvGetNextExpireTime
    timers.o(i.prvTimerTask) refers to timers.o(i.prvProcessTimerOrBlockTask) for prvProcessTimerOrBlockTask
    timers.o(i.prvTimerTask) refers to timers.o(i.prvProcessReceivedCommands) for prvProcessReceivedCommands
    timers.o(i.pvTimerGetTimerID) refers to port.o(i.vPortEnterCritical) for vPortEnterCritical
    timers.o(i.pvTimerGetTimerID) refers to port.o(i.vPortExitCritical) for vPortExitCritical
    timers.o(i.uxTimerGetReloadMode) refers to port.o(i.vPortEnterCritical) for vPortEnterCritical
    timers.o(i.uxTimerGetReloadMode) refers to port.o(i.vPortExitCritical) for vPortExitCritical
    timers.o(i.vTimerSetReloadMode) refers to port.o(i.vPortEnterCritical) for vPortEnterCritical
    timers.o(i.vTimerSetReloadMode) refers to port.o(i.vPortExitCritical) for vPortExitCritical
    timers.o(i.vTimerSetTimerID) refers to port.o(i.vPortEnterCritical) for vPortEnterCritical
    timers.o(i.vTimerSetTimerID) refers to port.o(i.vPortExitCritical) for vPortExitCritical
    timers.o(i.xTimerCreate) refers to heap_4.o(i.pvPortMalloc) for pvPortMalloc
    timers.o(i.xTimerCreate) refers to timers.o(i.prvInitialiseNewTimer) for prvInitialiseNewTimer
    timers.o(i.xTimerCreateTimerTask) refers to timers.o(i.prvCheckForValidListAndQueue) for prvCheckForValidListAndQueue
    timers.o(i.xTimerCreateTimerTask) refers to tasks.o(i.xTaskCreate) for xTaskCreate
    timers.o(i.xTimerCreateTimerTask) refers to timers.o(.data) for xTimerQueue
    timers.o(i.xTimerCreateTimerTask) refers to timers.o(i.prvTimerTask) for prvTimerTask
    timers.o(i.xTimerGenericCommand) refers to tasks.o(i.xTaskGetSchedulerState) for xTaskGetSchedulerState
    timers.o(i.xTimerGenericCommand) refers to queue.o(i.xQueueGenericSend) for xQueueGenericSend
    timers.o(i.xTimerGenericCommand) refers to queue.o(i.xQueueGenericSendFromISR) for xQueueGenericSendFromISR
    timers.o(i.xTimerGenericCommand) refers to timers.o(.data) for xTimerQueue
    timers.o(i.xTimerGetTimerDaemonTaskHandle) refers to timers.o(.data) for xTimerTaskHandle
    timers.o(i.xTimerIsTimerActive) refers to port.o(i.vPortEnterCritical) for vPortEnterCritical
    timers.o(i.xTimerIsTimerActive) refers to port.o(i.vPortExitCritical) for vPortExitCritical
    timers.o(i.xTimerPendFunctionCall) refers to queue.o(i.xQueueGenericSend) for xQueueGenericSend
    timers.o(i.xTimerPendFunctionCall) refers to timers.o(.data) for xTimerQueue
    timers.o(i.xTimerPendFunctionCallFromISR) refers to queue.o(i.xQueueGenericSendFromISR) for xQueueGenericSendFromISR
    timers.o(i.xTimerPendFunctionCallFromISR) refers to timers.o(.data) for xTimerQueue
    entry.o(.ARM.Collect$$$$00000000) refers (Special) to entry10a.o(.ARM.Collect$$$$0000000F) for __rt_final_cpp
    entry.o(.ARM.Collect$$$$00000000) refers (Special) to entry11a.o(.ARM.Collect$$$$00000011) for __rt_final_exit
    entry.o(.ARM.Collect$$$$00000000) refers (Special) to entry12b.o(.ARM.Collect$$$$0000000E) for __rt_lib_shutdown_fini
    entry.o(.ARM.Collect$$$$00000000) refers (Special) to entry7b.o(.ARM.Collect$$$$00000008) for _main_clock
    entry.o(.ARM.Collect$$$$00000000) refers (Special) to entry8b.o(.ARM.Collect$$$$0000000A) for _main_cpp_init
    entry.o(.ARM.Collect$$$$00000000) refers (Special) to entry9a.o(.ARM.Collect$$$$0000000B) for _main_init
    entry.o(.ARM.Collect$$$$00000000) refers (Special) to entry5.o(.ARM.Collect$$$$00000004) for _main_scatterload
    entry.o(.ARM.Collect$$$$00000000) refers (Special) to entry2.o(.ARM.Collect$$$$00000001) for _main_stk
    idiv.o(.text) refers to uidiv.o(.text) for __aeabi_uidivmod
    entry2.o(.ARM.Collect$$$$00000001) refers to entry2.o(.ARM.Collect$$$$00002712) for __lit__00000000
    entry2.o(.ARM.Collect$$$$00002712) refers to startup_stm32f072.o(STACK) for __initial_sp
    entry2.o(__vectab_stack_and_reset_area) refers to startup_stm32f072.o(STACK) for __initial_sp
    entry2.o(__vectab_stack_and_reset_area) refers to entry.o(.ARM.Collect$$$$00000000) for __main
    entry5.o(.ARM.Collect$$$$00000004) refers to init.o(.text) for __scatterload
    entry9a.o(.ARM.Collect$$$$0000000B) refers to main.o(i.main) for main
    entry9b.o(.ARM.Collect$$$$0000000C) refers to main.o(i.main) for main
    init.o(.text) refers to entry5.o(.ARM.Collect$$$$00000004) for __main_after_scatterload


==============================================================================

Removing Unused input sections from the image.

    Removing startup_stm32f072.o(HEAP), (3072 bytes).
    Removing stm32f0xx_crc.o(.rev16_text), (4 bytes).
    Removing stm32f0xx_crc.o(.revsh_text), (4 bytes).
    Removing stm32f0xx_crc.o(i.CRC_CalcBlockCRC), (36 bytes).
    Removing stm32f0xx_crc.o(i.CRC_CalcCRC), (16 bytes).
    Removing stm32f0xx_crc.o(i.CRC_CalcCRC16bits), (16 bytes).
    Removing stm32f0xx_crc.o(i.CRC_CalcCRC8bits), (16 bytes).
    Removing stm32f0xx_crc.o(i.CRC_DeInit), (36 bytes).
    Removing stm32f0xx_crc.o(i.CRC_GetCRC), (12 bytes).
    Removing stm32f0xx_crc.o(i.CRC_GetIDRegister), (12 bytes).
    Removing stm32f0xx_crc.o(i.CRC_PolynomialSizeSelect), (32 bytes).
    Removing stm32f0xx_crc.o(i.CRC_ResetDR), (20 bytes).
    Removing stm32f0xx_crc.o(i.CRC_ReverseInputDataSelect), (32 bytes).
    Removing stm32f0xx_crc.o(i.CRC_ReverseOutputDataCmd), (36 bytes).
    Removing stm32f0xx_crc.o(i.CRC_SetIDRegister), (12 bytes).
    Removing stm32f0xx_crc.o(i.CRC_SetInitRegister), (12 bytes).
    Removing stm32f0xx_crc.o(i.CRC_SetPolynomial), (12 bytes).
    Removing stm32f0xx_dac.o(.rev16_text), (4 bytes).
    Removing stm32f0xx_dac.o(.revsh_text), (4 bytes).
    Removing stm32f0xx_dac.o(i.DAC_ClearFlag), (16 bytes).
    Removing stm32f0xx_dac.o(i.DAC_ClearITPendingBit), (16 bytes).
    Removing stm32f0xx_dac.o(i.DAC_Cmd), (40 bytes).
    Removing stm32f0xx_dac.o(i.DAC_DMACmd), (44 bytes).
    Removing stm32f0xx_dac.o(i.DAC_DeInit), (22 bytes).
    Removing stm32f0xx_dac.o(i.DAC_DualSoftwareTriggerCmd), (36 bytes).
    Removing stm32f0xx_dac.o(i.DAC_GetDataOutputValue), (36 bytes).
    Removing stm32f0xx_dac.o(i.DAC_GetFlagStatus), (32 bytes).
    Removing stm32f0xx_dac.o(i.DAC_GetITStatus), (52 bytes).
    Removing stm32f0xx_dac.o(i.DAC_ITConfig), (44 bytes).
    Removing stm32f0xx_dac.o(i.DAC_Init), (56 bytes).
    Removing stm32f0xx_dac.o(i.DAC_SetChannel1Data), (32 bytes).
    Removing stm32f0xx_dac.o(i.DAC_SetChannel2Data), (32 bytes).
    Removing stm32f0xx_dac.o(i.DAC_SetDualChannelData), (40 bytes).
    Removing stm32f0xx_dac.o(i.DAC_SoftwareTriggerCmd), (48 bytes).
    Removing stm32f0xx_dac.o(i.DAC_StructInit), (12 bytes).
    Removing stm32f0xx_dac.o(i.DAC_WaveGenerationCmd), (44 bytes).
    Removing stm32f0xx_dbgmcu.o(.rev16_text), (4 bytes).
    Removing stm32f0xx_dbgmcu.o(.revsh_text), (4 bytes).
    Removing stm32f0xx_dbgmcu.o(i.DBGMCU_APB1PeriphConfig), (32 bytes).
    Removing stm32f0xx_dbgmcu.o(i.DBGMCU_APB2PeriphConfig), (32 bytes).
    Removing stm32f0xx_dbgmcu.o(i.DBGMCU_Config), (32 bytes).
    Removing stm32f0xx_dbgmcu.o(i.DBGMCU_GetDEVID), (16 bytes).
    Removing stm32f0xx_dbgmcu.o(i.DBGMCU_GetREVID), (12 bytes).
    Removing stm32f0xx_dma.o(.rev16_text), (4 bytes).
    Removing stm32f0xx_dma.o(.revsh_text), (4 bytes).
    Removing stm32f0xx_dma.o(i.DMA_GetCurrDataCounter), (8 bytes).
    Removing stm32f0xx_dma.o(i.DMA_GetFlagStatus), (28 bytes).
    Removing stm32f0xx_exti.o(.rev16_text), (4 bytes).
    Removing stm32f0xx_exti.o(.revsh_text), (4 bytes).
    Removing stm32f0xx_exti.o(i.EXTI_ClearFlag), (12 bytes).
    Removing stm32f0xx_exti.o(i.EXTI_DeInit), (32 bytes).
    Removing stm32f0xx_exti.o(i.EXTI_GenerateSWInterrupt), (16 bytes).
    Removing stm32f0xx_exti.o(i.EXTI_GetFlagStatus), (28 bytes).
    Removing stm32f0xx_exti.o(i.EXTI_StructInit), (16 bytes).
    Removing stm32f0xx_flash.o(.rev16_text), (4 bytes).
    Removing stm32f0xx_flash.o(.revsh_text), (4 bytes).
    Removing stm32f0xx_flash.o(i.FLASH_ClearFlag), (12 bytes).
    Removing stm32f0xx_flash.o(i.FLASH_EraseAllPages), (72 bytes).
    Removing stm32f0xx_flash.o(i.FLASH_GetFlagStatus), (28 bytes).
    Removing stm32f0xx_flash.o(i.FLASH_GetPrefetchBufferStatus), (28 bytes).
    Removing stm32f0xx_flash.o(i.FLASH_ITConfig), (32 bytes).
    Removing stm32f0xx_flash.o(i.FLASH_OB_BOOT0Config), (80 bytes).
    Removing stm32f0xx_flash.o(i.FLASH_OB_BOOT0SWConfig), (80 bytes).
    Removing stm32f0xx_flash.o(i.FLASH_OB_BOOTConfig), (80 bytes).
    Removing stm32f0xx_flash.o(i.FLASH_OB_EnableWRP), (184 bytes).
    Removing stm32f0xx_flash.o(i.FLASH_OB_Erase), (152 bytes).
    Removing stm32f0xx_flash.o(i.FLASH_OB_GetRDP), (28 bytes).
    Removing stm32f0xx_flash.o(i.FLASH_OB_GetUser), (16 bytes).
    Removing stm32f0xx_flash.o(i.FLASH_OB_GetWRP), (12 bytes).
    Removing stm32f0xx_flash.o(i.FLASH_OB_Launch), (20 bytes).
    Removing stm32f0xx_flash.o(i.FLASH_OB_Lock), (20 bytes).
    Removing stm32f0xx_flash.o(i.FLASH_OB_ProgramData), (72 bytes).
    Removing stm32f0xx_flash.o(i.FLASH_OB_RDPConfig), (144 bytes).
    Removing stm32f0xx_flash.o(i.FLASH_OB_SRAMParityConfig), (80 bytes).
    Removing stm32f0xx_flash.o(i.FLASH_OB_Unlock), (40 bytes).
    Removing stm32f0xx_flash.o(i.FLASH_OB_UserConfig), (88 bytes).
    Removing stm32f0xx_flash.o(i.FLASH_OB_VDDAConfig), (80 bytes).
    Removing stm32f0xx_flash.o(i.FLASH_OB_WriteUser), (76 bytes).
    Removing stm32f0xx_flash.o(i.FLASH_PrefetchBufferCmd), (36 bytes).
    Removing stm32f0xx_flash.o(i.FLASH_SetLatency), (28 bytes).
    Removing stm32f0xx_gpio.o(.rev16_text), (4 bytes).
    Removing stm32f0xx_gpio.o(.revsh_text), (4 bytes).
    Removing stm32f0xx_gpio.o(i.GPIO_DeInit), (176 bytes).
    Removing stm32f0xx_gpio.o(i.GPIO_PinLockConfig), (34 bytes).
    Removing stm32f0xx_gpio.o(i.GPIO_ReadInputData), (6 bytes).
    Removing stm32f0xx_gpio.o(i.GPIO_ReadOutputData), (6 bytes).
    Removing stm32f0xx_gpio.o(i.GPIO_ReadOutputDataBit), (20 bytes).
    Removing stm32f0xx_gpio.o(i.GPIO_Write), (4 bytes).
    Removing stm32f0xx_gpio.o(i.GPIO_WriteBit), (12 bytes).
    Removing stm32f0xx_i2c.o(.rev16_text), (4 bytes).
    Removing stm32f0xx_i2c.o(.revsh_text), (4 bytes).
    Removing stm32f0xx_i2c.o(i.I2C_10BitAddressHeaderCmd), (28 bytes).
    Removing stm32f0xx_i2c.o(i.I2C_10BitAddressingModeCmd), (28 bytes).
    Removing stm32f0xx_i2c.o(i.I2C_AcknowledgeConfig), (28 bytes).
    Removing stm32f0xx_i2c.o(i.I2C_AutoEndCmd), (28 bytes).
    Removing stm32f0xx_i2c.o(i.I2C_CalculatePEC), (28 bytes).
    Removing stm32f0xx_i2c.o(i.I2C_ClearFlag), (4 bytes).
    Removing stm32f0xx_i2c.o(i.I2C_ClearITPendingBit), (4 bytes).
    Removing stm32f0xx_i2c.o(i.I2C_ClockTimeoutCmd), (28 bytes).
    Removing stm32f0xx_i2c.o(i.I2C_Cmd), (24 bytes).
    Removing stm32f0xx_i2c.o(i.I2C_DMACmd), (20 bytes).
    Removing stm32f0xx_i2c.o(i.I2C_DeInit), (56 bytes).
    Removing stm32f0xx_i2c.o(i.I2C_DualAddressCmd), (28 bytes).
    Removing stm32f0xx_i2c.o(i.I2C_ExtendedClockTimeoutCmd), (26 bytes).
    Removing stm32f0xx_i2c.o(i.I2C_GeneralCallCmd), (28 bytes).
    Removing stm32f0xx_i2c.o(i.I2C_GenerateSTART), (28 bytes).
    Removing stm32f0xx_i2c.o(i.I2C_GenerateSTOP), (28 bytes).
    Removing stm32f0xx_i2c.o(i.I2C_GetAddressMatched), (14 bytes).
    Removing stm32f0xx_i2c.o(i.I2C_GetFlagStatus), (28 bytes).
    Removing stm32f0xx_i2c.o(i.I2C_GetITStatus), (78 bytes).
    Removing stm32f0xx_i2c.o(i.I2C_GetPEC), (8 bytes).
    Removing stm32f0xx_i2c.o(i.I2C_GetTransferDirection), (30 bytes).
    Removing stm32f0xx_i2c.o(i.I2C_ITConfig), (20 bytes).
    Removing stm32f0xx_i2c.o(i.I2C_IdleClockTimeoutCmd), (28 bytes).
    Removing stm32f0xx_i2c.o(i.I2C_Init), (108 bytes).
    Removing stm32f0xx_i2c.o(i.I2C_MasterRequestConfig), (28 bytes).
    Removing stm32f0xx_i2c.o(i.I2C_NumberOfBytesConfig), (28 bytes).
    Removing stm32f0xx_i2c.o(i.I2C_OwnAddress2Config), (36 bytes).
    Removing stm32f0xx_i2c.o(i.I2C_PECRequestCmd), (28 bytes).
    Removing stm32f0xx_i2c.o(i.I2C_ReadRegister), (22 bytes).
    Removing stm32f0xx_i2c.o(i.I2C_ReceiveData), (8 bytes).
    Removing stm32f0xx_i2c.o(i.I2C_ReloadCmd), (28 bytes).
    Removing stm32f0xx_i2c.o(i.I2C_SMBusAlertCmd), (28 bytes).
    Removing stm32f0xx_i2c.o(i.I2C_SendData), (4 bytes).
    Removing stm32f0xx_i2c.o(i.I2C_SlaveAddressConfig), (20 bytes).
    Removing stm32f0xx_i2c.o(i.I2C_SlaveByteControlCmd), (28 bytes).
    Removing stm32f0xx_i2c.o(i.I2C_SoftwareResetCmd), (20 bytes).
    Removing stm32f0xx_i2c.o(i.I2C_StopModeCmd), (28 bytes).
    Removing stm32f0xx_i2c.o(i.I2C_StretchClockCmd), (28 bytes).
    Removing stm32f0xx_i2c.o(i.I2C_StructInit), (24 bytes).
    Removing stm32f0xx_i2c.o(i.I2C_TimeoutAConfig), (20 bytes).
    Removing stm32f0xx_i2c.o(i.I2C_TimeoutBConfig), (32 bytes).
    Removing stm32f0xx_i2c.o(i.I2C_TransferHandling), (44 bytes).
    Removing stm32f0xx_iwdg.o(.rev16_text), (4 bytes).
    Removing stm32f0xx_iwdg.o(.revsh_text), (4 bytes).
    Removing stm32f0xx_iwdg.o(i.IWDG_Enable), (16 bytes).
    Removing stm32f0xx_iwdg.o(i.IWDG_GetFlagStatus), (28 bytes).
    Removing stm32f0xx_iwdg.o(i.IWDG_ReloadCounter), (16 bytes).
    Removing stm32f0xx_iwdg.o(i.IWDG_SetPrescaler), (12 bytes).
    Removing stm32f0xx_iwdg.o(i.IWDG_SetReload), (12 bytes).
    Removing stm32f0xx_iwdg.o(i.IWDG_SetWindowValue), (12 bytes).
    Removing stm32f0xx_iwdg.o(i.IWDG_WriteAccessCmd), (12 bytes).
    Removing stm32f0xx_misc.o(.rev16_text), (4 bytes).
    Removing stm32f0xx_misc.o(.revsh_text), (4 bytes).
    Removing stm32f0xx_misc.o(i.NVIC_SystemLPConfig), (32 bytes).
    Removing stm32f0xx_pwr.o(.rev16_text), (4 bytes).
    Removing stm32f0xx_pwr.o(.revsh_text), (4 bytes).
    Removing stm32f0xx_pwr.o(i.PWR_BackupAccessCmd), (40 bytes).
    Removing stm32f0xx_pwr.o(i.PWR_ClearFlag), (20 bytes).
    Removing stm32f0xx_pwr.o(i.PWR_DeInit), (22 bytes).
    Removing stm32f0xx_pwr.o(i.PWR_EnterSTANDBYMode), (48 bytes).
    Removing stm32f0xx_pwr.o(i.PWR_EnterSTOPMode), (100 bytes).
    Removing stm32f0xx_pwr.o(i.PWR_EnterSleepMode), (28 bytes).
    Removing stm32f0xx_pwr.o(i.PWR_GetFlagStatus), (28 bytes).
    Removing stm32f0xx_pwr.o(i.PWR_PVDCmd), (36 bytes).
    Removing stm32f0xx_pwr.o(i.PWR_PVDLevelConfig), (32 bytes).
    Removing stm32f0xx_pwr.o(i.PWR_WakeUpPinCmd), (32 bytes).
    Removing stm32f0xx_rcc.o(.rev16_text), (4 bytes).
    Removing stm32f0xx_rcc.o(.revsh_text), (4 bytes).
    Removing stm32f0xx_rcc.o(i.RCC_AHBPeriphResetCmd), (32 bytes).
    Removing stm32f0xx_rcc.o(i.RCC_AdjustHSI14CalibrationValue), (32 bytes).
    Removing stm32f0xx_rcc.o(i.RCC_AdjustHSICalibrationValue), (32 bytes).
    Removing stm32f0xx_rcc.o(i.RCC_BackupResetCmd), (40 bytes).
    Removing stm32f0xx_rcc.o(i.RCC_CECCLKConfig), (28 bytes).
    Removing stm32f0xx_rcc.o(i.RCC_ClearFlag), (20 bytes).
    Removing stm32f0xx_rcc.o(i.RCC_ClearITPendingBit), (12 bytes).
    Removing stm32f0xx_rcc.o(i.RCC_ClockSecuritySystemCmd), (40 bytes).
    Removing stm32f0xx_rcc.o(i.RCC_DeInit), (116 bytes).
    Removing stm32f0xx_rcc.o(i.RCC_GetFlagStatus), (72 bytes).
    Removing stm32f0xx_rcc.o(i.RCC_GetITStatus), (28 bytes).
    Removing stm32f0xx_rcc.o(i.RCC_GetSYSCLKSource), (16 bytes).
    Removing stm32f0xx_rcc.o(i.RCC_HCLKConfig), (32 bytes).
    Removing stm32f0xx_rcc.o(i.RCC_HSEConfig), (16 bytes).
    Removing stm32f0xx_rcc.o(i.RCC_HSI14ADCRequestCmd), (36 bytes).
    Removing stm32f0xx_rcc.o(i.RCC_HSI14Cmd), (36 bytes).
    Removing stm32f0xx_rcc.o(i.RCC_HSI48Cmd), (40 bytes).
    Removing stm32f0xx_rcc.o(i.RCC_HSICmd), (36 bytes).
    Removing stm32f0xx_rcc.o(i.RCC_I2CCLKConfig), (28 bytes).
    Removing stm32f0xx_rcc.o(i.RCC_ITConfig), (32 bytes).
    Removing stm32f0xx_rcc.o(i.RCC_LSEConfig), (40 bytes).
    Removing stm32f0xx_rcc.o(i.RCC_LSEDriveConfig), (28 bytes).
    Removing stm32f0xx_rcc.o(i.RCC_LSICmd), (36 bytes).
    Removing stm32f0xx_rcc.o(i.RCC_MCOConfig), (28 bytes).
    Removing stm32f0xx_rcc.o(i.RCC_PCLKConfig), (36 bytes).
    Removing stm32f0xx_rcc.o(i.RCC_PLLCmd), (40 bytes).
    Removing stm32f0xx_rcc.o(i.RCC_PLLConfig), (36 bytes).
    Removing stm32f0xx_rcc.o(i.RCC_PREDIV1Config), (28 bytes).
    Removing stm32f0xx_rcc.o(i.RCC_RTCCLKCmd), (40 bytes).
    Removing stm32f0xx_rcc.o(i.RCC_RTCCLKConfig), (16 bytes).
    Removing stm32f0xx_rcc.o(i.RCC_SYSCLKConfig), (28 bytes).
    Removing stm32f0xx_rcc.o(i.RCC_USARTCLKConfig), (52 bytes).
    Removing stm32f0xx_rcc.o(i.RCC_USBCLKConfig), (28 bytes).
    Removing stm32f0xx_rcc.o(i.RCC_WaitForHSEStartUp), (60 bytes).
    Removing stm32f0xx_rtc.o(.rev16_text), (4 bytes).
    Removing stm32f0xx_rtc.o(.revsh_text), (4 bytes).
    Removing stm32f0xx_rtc.o(i.RTC_AlarmCmd), (112 bytes).
    Removing stm32f0xx_rtc.o(i.RTC_AlarmStructInit), (22 bytes).
    Removing stm32f0xx_rtc.o(i.RTC_AlarmSubSecondConfig), (40 bytes).
    Removing stm32f0xx_rtc.o(i.RTC_Bcd2ToByte), (26 bytes).
    Removing stm32f0xx_rtc.o(i.RTC_BypassShadowCmd), (52 bytes).
    Removing stm32f0xx_rtc.o(i.RTC_ByteToBcd2), (28 bytes).
    Removing stm32f0xx_rtc.o(i.RTC_CalibOutputCmd), (56 bytes).
    Removing stm32f0xx_rtc.o(i.RTC_CalibOutputConfig), (44 bytes).
    Removing stm32f0xx_rtc.o(i.RTC_ClearFlag), (32 bytes).
    Removing stm32f0xx_rtc.o(i.RTC_ClearITPendingBit), (36 bytes).
    Removing stm32f0xx_rtc.o(i.RTC_DateStructInit), (14 bytes).
    Removing stm32f0xx_rtc.o(i.RTC_DayLightSavingConfig), (48 bytes).
    Removing stm32f0xx_rtc.o(i.RTC_DeInit), (116 bytes).
    Removing stm32f0xx_rtc.o(i.RTC_EnterInitMode), (88 bytes).
    Removing stm32f0xx_rtc.o(i.RTC_ExitInitMode), (20 bytes).
    Removing stm32f0xx_rtc.o(i.RTC_GetAlarm), (120 bytes).
    Removing stm32f0xx_rtc.o(i.RTC_GetAlarmSubSecond), (20 bytes).
    Removing stm32f0xx_rtc.o(i.RTC_GetDate), (96 bytes).
    Removing stm32f0xx_rtc.o(i.RTC_GetFlagStatus), (44 bytes).
    Removing stm32f0xx_rtc.o(i.RTC_GetITStatus), (76 bytes).
    Removing stm32f0xx_rtc.o(i.RTC_GetStoreOperation), (16 bytes).
    Removing stm32f0xx_rtc.o(i.RTC_GetSubSecond), (16 bytes).
    Removing stm32f0xx_rtc.o(i.RTC_GetTime), (92 bytes).
    Removing stm32f0xx_rtc.o(i.RTC_GetTimeStamp), (164 bytes).
    Removing stm32f0xx_rtc.o(i.RTC_GetTimeStampSubSecond), (12 bytes).
    Removing stm32f0xx_rtc.o(i.RTC_GetWakeUpCounter), (12 bytes).
    Removing stm32f0xx_rtc.o(i.RTC_ITConfig), (100 bytes).
    Removing stm32f0xx_rtc.o(i.RTC_Init), (88 bytes).
    Removing stm32f0xx_rtc.o(i.RTC_OutputConfig), (48 bytes).
    Removing stm32f0xx_rtc.o(i.RTC_OutputTypeConfig), (28 bytes).
    Removing stm32f0xx_rtc.o(i.RTC_ReadBackupRegister), (32 bytes).
    Removing stm32f0xx_rtc.o(i.RTC_RefClockCmd), (76 bytes).
    Removing stm32f0xx_rtc.o(i.RTC_SetAlarm), (216 bytes).
    Removing stm32f0xx_rtc.o(i.RTC_SetDate), (208 bytes).
    Removing stm32f0xx_rtc.o(i.RTC_SetTime), (216 bytes).
    Removing stm32f0xx_rtc.o(i.RTC_SetWakeUpCounter), (24 bytes).
    Removing stm32f0xx_rtc.o(i.RTC_SmoothCalibConfig), (96 bytes).
    Removing stm32f0xx_rtc.o(i.RTC_StructInit), (14 bytes).
    Removing stm32f0xx_rtc.o(i.RTC_SynchroShiftConfig), (124 bytes).
    Removing stm32f0xx_rtc.o(i.RTC_TamperCmd), (32 bytes).
    Removing stm32f0xx_rtc.o(i.RTC_TamperFilterConfig), (28 bytes).
    Removing stm32f0xx_rtc.o(i.RTC_TamperPinsPrechargeDuration), (28 bytes).
    Removing stm32f0xx_rtc.o(i.RTC_TamperPullUpCmd), (40 bytes).
    Removing stm32f0xx_rtc.o(i.RTC_TamperSamplingFreqConfig), (28 bytes).
    Removing stm32f0xx_rtc.o(i.RTC_TamperTriggerConfig), (36 bytes).
    Removing stm32f0xx_rtc.o(i.RTC_TimeStampCmd), (64 bytes).
    Removing stm32f0xx_rtc.o(i.RTC_TimeStampOnTamperDetectionCmd), (36 bytes).
    Removing stm32f0xx_rtc.o(i.RTC_TimeStructInit), (12 bytes).
    Removing stm32f0xx_rtc.o(i.RTC_WaitForSynchro), (108 bytes).
    Removing stm32f0xx_rtc.o(i.RTC_WakeUpClockConfig), (40 bytes).
    Removing stm32f0xx_rtc.o(i.RTC_WakeUpCmd), (116 bytes).
    Removing stm32f0xx_rtc.o(i.RTC_WriteBackupRegister), (28 bytes).
    Removing stm32f0xx_rtc.o(i.RTC_WriteProtectionCmd), (28 bytes).
    Removing stm32f0xx_spi.o(.rev16_text), (4 bytes).
    Removing stm32f0xx_spi.o(.revsh_text), (4 bytes).
    Removing stm32f0xx_spi.o(i.I2S_Cmd), (32 bytes).
    Removing stm32f0xx_spi.o(i.I2S_Init), (232 bytes).
    Removing stm32f0xx_spi.o(i.I2S_StructInit), (20 bytes).
    Removing stm32f0xx_spi.o(i.SPI_BiDirectionalLineConfig), (32 bytes).
    Removing stm32f0xx_spi.o(i.SPI_CRCLengthConfig), (20 bytes).
    Removing stm32f0xx_spi.o(i.SPI_CalculateCRC), (32 bytes).
    Removing stm32f0xx_spi.o(i.SPI_DataSizeConfig), (24 bytes).
    Removing stm32f0xx_spi.o(i.SPI_GetCRC), (16 bytes).
    Removing stm32f0xx_spi.o(i.SPI_GetCRCPolynomial), (6 bytes).
    Removing stm32f0xx_spi.o(i.SPI_GetReceptionFIFOStatus), (12 bytes).
    Removing stm32f0xx_spi.o(i.SPI_GetTransmissionFIFOStatus), (12 bytes).
    Removing stm32f0xx_spi.o(i.SPI_I2S_DMACmd), (20 bytes).
    Removing stm32f0xx_spi.o(i.SPI_I2S_DeInit), (60 bytes).
    Removing stm32f0xx_spi.o(i.SPI_I2S_GetITStatus), (56 bytes).
    Removing stm32f0xx_spi.o(i.SPI_I2S_ITConfig), (34 bytes).
    Removing stm32f0xx_spi.o(i.SPI_I2S_ReceiveData16), (6 bytes).
    Removing stm32f0xx_spi.o(i.SPI_I2S_SendData16), (4 bytes).
    Removing stm32f0xx_spi.o(i.SPI_LastDMATransferCmd), (20 bytes).
    Removing stm32f0xx_spi.o(i.SPI_NSSInternalSoftwareConfig), (32 bytes).
    Removing stm32f0xx_spi.o(i.SPI_NSSPulseModeCmd), (28 bytes).
    Removing stm32f0xx_spi.o(i.SPI_SSOutputCmd), (28 bytes).
    Removing stm32f0xx_spi.o(i.SPI_StructInit), (30 bytes).
    Removing stm32f0xx_spi.o(i.SPI_TIModeCmd), (28 bytes).
    Removing stm32f0xx_spi.o(i.SPI_TransmitCRC), (12 bytes).
    Removing stm32f0xx_syscfg.o(.rev16_text), (4 bytes).
    Removing stm32f0xx_syscfg.o(.revsh_text), (4 bytes).
    Removing stm32f0xx_syscfg.o(i.SYSCFG_BreakConfig), (16 bytes).
    Removing stm32f0xx_syscfg.o(i.SYSCFG_ClearFlag), (16 bytes).
    Removing stm32f0xx_syscfg.o(i.SYSCFG_DMAChannelRemapConfig), (32 bytes).
    Removing stm32f0xx_syscfg.o(i.SYSCFG_DeInit), (44 bytes).
    Removing stm32f0xx_syscfg.o(i.SYSCFG_GetFlagStatus), (32 bytes).
    Removing stm32f0xx_syscfg.o(i.SYSCFG_I2CFastModePlusConfig), (32 bytes).
    Removing stm32f0xx_tim.o(.rev16_text), (4 bytes).
    Removing stm32f0xx_tim.o(.revsh_text), (4 bytes).
    Removing stm32f0xx_tim.o(i.TI1_Config), (56 bytes).
    Removing stm32f0xx_tim.o(i.TI2_Config), (76 bytes).
    Removing stm32f0xx_tim.o(i.TI3_Config), (72 bytes).
    Removing stm32f0xx_tim.o(i.TI4_Config), (80 bytes).
    Removing stm32f0xx_tim.o(i.TIM_BDTRConfig), (32 bytes).
    Removing stm32f0xx_tim.o(i.TIM_BDTRStructInit), (18 bytes).
    Removing stm32f0xx_tim.o(i.TIM_CCPreloadControl), (28 bytes).
    Removing stm32f0xx_tim.o(i.TIM_CCxCmd), (30 bytes).
    Removing stm32f0xx_tim.o(i.TIM_CCxNCmd), (30 bytes).
    Removing stm32f0xx_tim.o(i.TIM_ClearOC1Ref), (24 bytes).
    Removing stm32f0xx_tim.o(i.TIM_ClearOC2Ref), (20 bytes).
    Removing stm32f0xx_tim.o(i.TIM_ClearOC3Ref), (24 bytes).
    Removing stm32f0xx_tim.o(i.TIM_ClearOC4Ref), (20 bytes).
    Removing stm32f0xx_tim.o(i.TIM_CounterModeConfig), (24 bytes).
    Removing stm32f0xx_tim.o(i.TIM_DMAConfig), (12 bytes).
    Removing stm32f0xx_tim.o(i.TIM_ETRClockMode1Config), (52 bytes).
    Removing stm32f0xx_tim.o(i.TIM_ETRClockMode2Config), (34 bytes).
    Removing stm32f0xx_tim.o(i.TIM_ETRConfig), (24 bytes).
    Removing stm32f0xx_tim.o(i.TIM_EncoderInterfaceConfig), (68 bytes).
    Removing stm32f0xx_tim.o(i.TIM_ForcedOC1Config), (24 bytes).
    Removing stm32f0xx_tim.o(i.TIM_ForcedOC2Config), (24 bytes).
    Removing stm32f0xx_tim.o(i.TIM_ForcedOC3Config), (24 bytes).
    Removing stm32f0xx_tim.o(i.TIM_ForcedOC4Config), (24 bytes).
    Removing stm32f0xx_tim.o(i.TIM_GenerateEvent), (4 bytes).
    Removing stm32f0xx_tim.o(i.TIM_GetCapture1), (6 bytes).
    Removing stm32f0xx_tim.o(i.TIM_GetCapture2), (6 bytes).
    Removing stm32f0xx_tim.o(i.TIM_GetCapture3), (6 bytes).
    Removing stm32f0xx_tim.o(i.TIM_GetCapture4), (6 bytes).
    Removing stm32f0xx_tim.o(i.TIM_GetCounter), (6 bytes).
    Removing stm32f0xx_tim.o(i.TIM_GetFlagStatus), (20 bytes).
    Removing stm32f0xx_tim.o(i.TIM_GetPrescaler), (6 bytes).
    Removing stm32f0xx_tim.o(i.TIM_ICInit), (112 bytes).
    Removing stm32f0xx_tim.o(i.TIM_ICStructInit), (18 bytes).
    Removing stm32f0xx_tim.o(i.TIM_ITRxExternalClockConfig), (24 bytes).
    Removing stm32f0xx_tim.o(i.TIM_InternalClockConfig), (16 bytes).
    Removing stm32f0xx_tim.o(i.TIM_OC1FastConfig), (24 bytes).
    Removing stm32f0xx_tim.o(i.TIM_OC1NPolarityConfig), (24 bytes).
    Removing stm32f0xx_tim.o(i.TIM_OC1PolarityConfig), (24 bytes).
    Removing stm32f0xx_tim.o(i.TIM_OC2FastConfig), (24 bytes).
    Removing stm32f0xx_tim.o(i.TIM_OC2NPolarityConfig), (24 bytes).
    Removing stm32f0xx_tim.o(i.TIM_OC2PolarityConfig), (24 bytes).
    Removing stm32f0xx_tim.o(i.TIM_OC3FastConfig), (24 bytes).
    Removing stm32f0xx_tim.o(i.TIM_OC3NPolarityConfig), (24 bytes).
    Removing stm32f0xx_tim.o(i.TIM_OC3PolarityConfig), (24 bytes).
    Removing stm32f0xx_tim.o(i.TIM_OC4FastConfig), (24 bytes).
    Removing stm32f0xx_tim.o(i.TIM_OC4Init), (112 bytes).
    Removing stm32f0xx_tim.o(i.TIM_OC4PolarityConfig), (24 bytes).
    Removing stm32f0xx_tim.o(i.TIM_OC4PreloadConfig), (24 bytes).
    Removing stm32f0xx_tim.o(i.TIM_PWMIConfig), (124 bytes).
    Removing stm32f0xx_tim.o(i.TIM_PrescalerConfig), (6 bytes).
    Removing stm32f0xx_tim.o(i.TIM_RemapConfig), (6 bytes).
    Removing stm32f0xx_tim.o(i.TIM_SelectCCDMA), (28 bytes).
    Removing stm32f0xx_tim.o(i.TIM_SelectCOM), (28 bytes).
    Removing stm32f0xx_tim.o(i.TIM_SelectHallSensor), (28 bytes).
    Removing stm32f0xx_tim.o(i.TIM_SelectInputTrigger), (24 bytes).
    Removing stm32f0xx_tim.o(i.TIM_SelectMasterSlaveMode), (20 bytes).
    Removing stm32f0xx_tim.o(i.TIM_SelectOCREFClear), (20 bytes).
    Removing stm32f0xx_tim.o(i.TIM_SelectOCxM), (82 bytes).
    Removing stm32f0xx_tim.o(i.TIM_SelectOnePulseMode), (20 bytes).
    Removing stm32f0xx_tim.o(i.TIM_SelectOutputTrigger), (20 bytes).
    Removing stm32f0xx_tim.o(i.TIM_SelectSlaveMode), (20 bytes).
    Removing stm32f0xx_tim.o(i.TIM_SetAutoreload), (4 bytes).
    Removing stm32f0xx_tim.o(i.TIM_SetClockDivision), (20 bytes).
    Removing stm32f0xx_tim.o(i.TIM_SetCompare4), (4 bytes).
    Removing stm32f0xx_tim.o(i.TIM_SetCounter), (4 bytes).
    Removing stm32f0xx_tim.o(i.TIM_SetIC1Prescaler), (20 bytes).
    Removing stm32f0xx_tim.o(i.TIM_SetIC2Prescaler), (24 bytes).
    Removing stm32f0xx_tim.o(i.TIM_SetIC3Prescaler), (20 bytes).
    Removing stm32f0xx_tim.o(i.TIM_SetIC4Prescaler), (24 bytes).
    Removing stm32f0xx_tim.o(i.TIM_TIxExternalClockConfig), (58 bytes).
    Removing stm32f0xx_tim.o(i.TIM_UpdateDisableConfig), (28 bytes).
    Removing stm32f0xx_tim.o(i.TIM_UpdateRequestConfig), (28 bytes).
    Removing stm32f0xx_wwdg.o(.rev16_text), (4 bytes).
    Removing stm32f0xx_wwdg.o(.revsh_text), (4 bytes).
    Removing stm32f0xx_wwdg.o(i.WWDG_ClearFlag), (12 bytes).
    Removing stm32f0xx_wwdg.o(i.WWDG_DeInit), (22 bytes).
    Removing stm32f0xx_wwdg.o(i.WWDG_Enable), (16 bytes).
    Removing stm32f0xx_wwdg.o(i.WWDG_EnableIT), (20 bytes).
    Removing stm32f0xx_wwdg.o(i.WWDG_GetFlagStatus), (24 bytes).
    Removing stm32f0xx_wwdg.o(i.WWDG_SetCounter), (16 bytes).
    Removing stm32f0xx_wwdg.o(i.WWDG_SetPrescaler), (32 bytes).
    Removing stm32f0xx_wwdg.o(i.WWDG_SetWindowValue), (40 bytes).
    Removing stm32f0xx_adc.o(.rev16_text), (4 bytes).
    Removing stm32f0xx_adc.o(.revsh_text), (4 bytes).
    Removing stm32f0xx_adc.o(i.ADC_AnalogWatchdogCmd), (28 bytes).
    Removing stm32f0xx_adc.o(i.ADC_AnalogWatchdogSingleChannelCmd), (28 bytes).
    Removing stm32f0xx_adc.o(i.ADC_AnalogWatchdogSingleChannelConfig), (28 bytes).
    Removing stm32f0xx_adc.o(i.ADC_AnalogWatchdogThresholdsConfig), (8 bytes).
    Removing stm32f0xx_adc.o(i.ADC_AutoPowerOffCmd), (28 bytes).
    Removing stm32f0xx_adc.o(i.ADC_ClearFlag), (4 bytes).
    Removing stm32f0xx_adc.o(i.ADC_ClearITPendingBit), (4 bytes).
    Removing stm32f0xx_adc.o(i.ADC_ClockModeConfig), (4 bytes).
    Removing stm32f0xx_adc.o(i.ADC_ContinuousModeCmd), (28 bytes).
    Removing stm32f0xx_adc.o(i.ADC_DiscModeCmd), (28 bytes).
    Removing stm32f0xx_adc.o(i.ADC_GetConversionValue), (8 bytes).
    Removing stm32f0xx_adc.o(i.ADC_GetITStatus), (34 bytes).
    Removing stm32f0xx_adc.o(i.ADC_ITConfig), (20 bytes).
    Removing stm32f0xx_adc.o(i.ADC_JitterCmd), (20 bytes).
    Removing stm32f0xx_adc.o(i.ADC_OverrunModeCmd), (28 bytes).
    Removing stm32f0xx_adc.o(i.ADC_StopOfConversion), (10 bytes).
    Removing stm32f0xx_adc.o(i.ADC_TempSensorCmd), (40 bytes).
    Removing stm32f0xx_adc.o(i.ADC_VbatCmd), (40 bytes).
    Removing stm32f0xx_adc.o(i.ADC_VrefintCmd), (40 bytes).
    Removing stm32f0xx_adc.o(i.ADC_WaitModeCmd), (28 bytes).
    Removing stm32f0xx_comp.o(.rev16_text), (4 bytes).
    Removing stm32f0xx_comp.o(.revsh_text), (4 bytes).
    Removing stm32f0xx_comp.o(i.COMP_Cmd), (40 bytes).
    Removing stm32f0xx_comp.o(i.COMP_DeInit), (12 bytes).
    Removing stm32f0xx_comp.o(i.COMP_GetOutputLevel), (36 bytes).
    Removing stm32f0xx_comp.o(i.COMP_Init), (56 bytes).
    Removing stm32f0xx_comp.o(i.COMP_LockConfig), (24 bytes).
    Removing stm32f0xx_comp.o(i.COMP_StructInit), (16 bytes).
    Removing stm32f0xx_comp.o(i.COMP_SwitchCmd), (36 bytes).
    Removing stm32f0xx_comp.o(i.COMP_WindowCmd), (40 bytes).
    Removing stm32f0xx_can.o(.rev16_text), (4 bytes).
    Removing stm32f0xx_can.o(.revsh_text), (4 bytes).
    Removing stm32f0xx_can.o(i.CAN_CancelTransmit), (54 bytes).
    Removing stm32f0xx_can.o(i.CAN_ClearFlag), (68 bytes).
    Removing stm32f0xx_can.o(i.CAN_ClearITPendingBit), (188 bytes).
    Removing stm32f0xx_can.o(i.CAN_DBGFreeze), (28 bytes).
    Removing stm32f0xx_can.o(i.CAN_DeInit), (24 bytes).
    Removing stm32f0xx_can.o(i.CAN_FIFORelease), (24 bytes).
    Removing stm32f0xx_can.o(i.CAN_FilterInit), (252 bytes).
    Removing stm32f0xx_can.o(i.CAN_GetFlagStatus), (146 bytes).
    Removing stm32f0xx_can.o(i.CAN_GetITStatus), (312 bytes).
    Removing stm32f0xx_can.o(i.CAN_GetLSBTransmitErrorCounter), (16 bytes).
    Removing stm32f0xx_can.o(i.CAN_GetLastErrorCode), (14 bytes).
    Removing stm32f0xx_can.o(i.CAN_GetReceiveErrorCounter), (10 bytes).
    Removing stm32f0xx_can.o(i.CAN_ITConfig), (20 bytes).
    Removing stm32f0xx_can.o(i.CAN_Init), (284 bytes).
    Removing stm32f0xx_can.o(i.CAN_MessagePending), (32 bytes).
    Removing stm32f0xx_can.o(i.CAN_OperatingModeRequest), (172 bytes).
    Removing stm32f0xx_can.o(i.CAN_Receive), (262 bytes).
    Removing stm32f0xx_can.o(i.CAN_SlaveStartBank), (56 bytes).
    Removing stm32f0xx_can.o(i.CAN_Sleep), (30 bytes).
    Removing stm32f0xx_can.o(i.CAN_StructInit), (32 bytes).
    Removing stm32f0xx_can.o(i.CAN_TTComModeCmd), (128 bytes).
    Removing stm32f0xx_can.o(i.CAN_Transmit), (308 bytes).
    Removing stm32f0xx_can.o(i.CAN_TransmitStatus), (176 bytes).
    Removing stm32f0xx_can.o(i.CAN_WakeUp), (52 bytes).
    Removing stm32f0xx_can.o(i.CheckITStatus), (20 bytes).
    Removing stm32f0xx_cec.o(.rev16_text), (4 bytes).
    Removing stm32f0xx_cec.o(.revsh_text), (4 bytes).
    Removing stm32f0xx_cec.o(i.CEC_ClearFlag), (12 bytes).
    Removing stm32f0xx_cec.o(i.CEC_ClearITPendingBit), (12 bytes).
    Removing stm32f0xx_cec.o(i.CEC_Cmd), (36 bytes).
    Removing stm32f0xx_cec.o(i.CEC_DeInit), (22 bytes).
    Removing stm32f0xx_cec.o(i.CEC_EndOfMessage), (20 bytes).
    Removing stm32f0xx_cec.o(i.CEC_GetFlagStatus), (28 bytes).
    Removing stm32f0xx_cec.o(i.CEC_GetITStatus), (40 bytes).
    Removing stm32f0xx_cec.o(i.CEC_ITConfig), (36 bytes).
    Removing stm32f0xx_cec.o(i.CEC_Init), (52 bytes).
    Removing stm32f0xx_cec.o(i.CEC_ListenModeCmd), (40 bytes).
    Removing stm32f0xx_cec.o(i.CEC_OwnAddressClear), (12 bytes).
    Removing stm32f0xx_cec.o(i.CEC_OwnAddressConfig), (28 bytes).
    Removing stm32f0xx_cec.o(i.CEC_ReceiveData), (12 bytes).
    Removing stm32f0xx_cec.o(i.CEC_SendData), (12 bytes).
    Removing stm32f0xx_cec.o(i.CEC_StartOfMessage), (20 bytes).
    Removing stm32f0xx_cec.o(i.CEC_StructInit), (18 bytes).
    Removing stm32f0xx_crs.o(.rev16_text), (4 bytes).
    Removing stm32f0xx_crs.o(.revsh_text), (4 bytes).
    Removing stm32f0xx_crs.o(i.CRS_AdjustHSI48CalibrationValue), (32 bytes).
    Removing stm32f0xx_crs.o(i.CRS_AutomaticCalibrationCmd), (36 bytes).
    Removing stm32f0xx_crs.o(i.CRS_ClearFlag), (40 bytes).
    Removing stm32f0xx_crs.o(i.CRS_ClearITPendingBit), (40 bytes).
    Removing stm32f0xx_crs.o(i.CRS_DeInit), (22 bytes).
    Removing stm32f0xx_crs.o(i.CRS_FrequencyErrorCounterCmd), (36 bytes).
    Removing stm32f0xx_crs.o(i.CRS_FrequencyErrorCounterReload), (28 bytes).
    Removing stm32f0xx_crs.o(i.CRS_FrequencyErrorLimitConfig), (28 bytes).
    Removing stm32f0xx_crs.o(i.CRS_GetFlagStatus), (16 bytes).
    Removing stm32f0xx_crs.o(i.CRS_GetFrequencyErrorDirection), (16 bytes).
    Removing stm32f0xx_crs.o(i.CRS_GetFrequencyErrorValue), (16 bytes).
    Removing stm32f0xx_crs.o(i.CRS_GetHSI48CalibrationValue), (20 bytes).
    Removing stm32f0xx_crs.o(i.CRS_GetITStatus), (16 bytes).
    Removing stm32f0xx_crs.o(i.CRS_GetReloadValue), (12 bytes).
    Removing stm32f0xx_crs.o(i.CRS_ITConfig), (32 bytes).
    Removing stm32f0xx_crs.o(i.CRS_SoftwareSynchronizationGenerate), (20 bytes).
    Removing stm32f0xx_crs.o(i.CRS_SynchronizationPolarityConfig), (28 bytes).
    Removing stm32f0xx_crs.o(i.CRS_SynchronizationPrescalerConfig), (28 bytes).
    Removing stm32f0xx_crs.o(i.CRS_SynchronizationSourceConfig), (28 bytes).
    Removing stm32f0xx_usart.o(.rev16_text), (4 bytes).
    Removing stm32f0xx_usart.o(.revsh_text), (4 bytes).
    Removing stm32f0xx_usart.o(i.USART_AddressDetectionConfig), (16 bytes).
    Removing stm32f0xx_usart.o(i.USART_AutoBaudRateCmd), (28 bytes).
    Removing stm32f0xx_usart.o(i.USART_AutoBaudRateConfig), (18 bytes).
    Removing stm32f0xx_usart.o(i.USART_ClearFlag), (4 bytes).
    Removing stm32f0xx_usart.o(i.USART_ClearITPendingBit), (18 bytes).
    Removing stm32f0xx_usart.o(i.USART_ClockInit), (36 bytes).
    Removing stm32f0xx_usart.o(i.USART_ClockStructInit), (12 bytes).
    Removing stm32f0xx_usart.o(i.USART_DECmd), (28 bytes).
    Removing stm32f0xx_usart.o(i.USART_DEPolarityConfig), (18 bytes).
    Removing stm32f0xx_usart.o(i.USART_DMAReceptionErrorConfig), (18 bytes).
    Removing stm32f0xx_usart.o(i.USART_DataInvCmd), (28 bytes).
    Removing stm32f0xx_usart.o(i.USART_DirectionModeCmd), (20 bytes).
    Removing stm32f0xx_usart.o(i.USART_GetFlagStatus), (20 bytes).
    Removing stm32f0xx_usart.o(i.USART_GetITStatus), (78 bytes).
    Removing stm32f0xx_usart.o(i.USART_ITConfig), (66 bytes).
    Removing stm32f0xx_usart.o(i.USART_InvPinCmd), (20 bytes).
    Removing stm32f0xx_usart.o(i.USART_IrDACmd), (24 bytes).
    Removing stm32f0xx_usart.o(i.USART_IrDAConfig), (16 bytes).
    Removing stm32f0xx_usart.o(i.USART_LINBreakDetectLengthConfig), (16 bytes).
    Removing stm32f0xx_usart.o(i.USART_LINCmd), (28 bytes).
    Removing stm32f0xx_usart.o(i.USART_MSBFirstCmd), (28 bytes).
    Removing stm32f0xx_usart.o(i.USART_MuteModeCmd), (28 bytes).
    Removing stm32f0xx_usart.o(i.USART_MuteModeWakeUpConfig), (18 bytes).
    Removing stm32f0xx_usart.o(i.USART_OneBitMethodCmd), (28 bytes).
    Removing stm32f0xx_usart.o(i.USART_OverSampling8Cmd), (28 bytes).
    Removing stm32f0xx_usart.o(i.USART_OverrunDetectionConfig), (18 bytes).
    Removing stm32f0xx_usart.o(i.USART_ReceiveData), (10 bytes).
    Removing stm32f0xx_usart.o(i.USART_ReceiverTimeOutCmd), (28 bytes).
    Removing stm32f0xx_usart.o(i.USART_RequestCmd), (20 bytes).
    Removing stm32f0xx_usart.o(i.USART_STOPModeCmd), (24 bytes).
    Removing stm32f0xx_usart.o(i.USART_SWAPPinCmd), (28 bytes).
    Removing stm32f0xx_usart.o(i.USART_SendData), (8 bytes).
    Removing stm32f0xx_usart.o(i.USART_SetAddress), (18 bytes).
    Removing stm32f0xx_usart.o(i.USART_SetAutoRetryCount), (20 bytes).
    Removing stm32f0xx_usart.o(i.USART_SetBlockLength), (18 bytes).
    Removing stm32f0xx_usart.o(i.USART_SetDEAssertionTime), (20 bytes).
    Removing stm32f0xx_usart.o(i.USART_SetDEDeassertionTime), (20 bytes).
    Removing stm32f0xx_usart.o(i.USART_SetGuardTime), (16 bytes).
    Removing stm32f0xx_usart.o(i.USART_SetPrescaler), (18 bytes).
    Removing stm32f0xx_usart.o(i.USART_SetReceiverTimeOut), (16 bytes).
    Removing stm32f0xx_usart.o(i.USART_SmartCardCmd), (24 bytes).
    Removing stm32f0xx_usart.o(i.USART_SmartCardNACKCmd), (24 bytes).
    Removing stm32f0xx_usart.o(i.USART_StopModeWakeUpSourceConfig), (18 bytes).
    Removing stm32f0xx_usart.o(i.USART_StructInit), (24 bytes).
    Removing system_stm32f0xx.o(.rev16_text), (4 bytes).
    Removing system_stm32f0xx.o(.revsh_text), (4 bytes).
    Removing system_stm32f0xx.o(i.SetSysClock), (216 bytes).
    Removing main.o(.rev16_text), (4 bytes).
    Removing main.o(.revsh_text), (4 bytes).
    Removing main.o(.constdata), (31 bytes).
    Removing system_config.o(.rev16_text), (4 bytes).
    Removing system_config.o(.revsh_text), (4 bytes).
    Removing system_config.o(i.delay_ms), (68 bytes).
    Removing system_config.o(.constdata), (31 bytes).
    Removing universal_init.o(.rev16_text), (4 bytes).
    Removing universal_init.o(.revsh_text), (4 bytes).
    Removing universal_init.o(i.Handle_Temp_OFF), (16 bytes).
    Removing universal_init.o(i.Handle_Temp_ON), (16 bytes).
    Removing universal_init.o(.constdata), (31 bytes).
    Removing universal_init.o(.data), (27 bytes).
    Removing gpio.o(.rev16_text), (4 bytes).
    Removing gpio.o(.revsh_text), (4 bytes).
    Removing gpio.o(i.gpioGetOutput), (40 bytes).
    Removing gpio.o(i.gpioSetToggle), (48 bytes).
    Removing gpio.o(.constdata), (31 bytes).
    Removing parseframe.o(.rev16_text), (4 bytes).
    Removing parseframe.o(.revsh_text), (4 bytes).
    Removing parseframe.o(.bss), (150 bytes).
    Removing parseframe.o(.constdata), (31 bytes).
    Removing user_com_task.o(.rev16_text), (4 bytes).
    Removing user_com_task.o(.revsh_text), (4 bytes).
    Removing user_com_task.o(.constdata), (31 bytes).
    Removing uart_3.o(.rev16_text), (4 bytes).
    Removing uart_3.o(.revsh_text), (4 bytes).
    Removing uart_3.o(i.UART3_PopFrame), (92 bytes).
    Removing uart_3.o(.constdata), (31 bytes).
    Removing dis_task.o(.rev16_text), (4 bytes).
    Removing dis_task.o(.revsh_text), (4 bytes).
    Removing dis_task.o(.constdata), (31 bytes).
    Removing led_others.o(.rev16_text), (4 bytes).
    Removing led_others.o(.revsh_text), (4 bytes).
    Removing led_others.o(.constdata), (31 bytes).
    Removing ambient_light_app.o(.rev16_text), (4 bytes).
    Removing ambient_light_app.o(.revsh_text), (4 bytes).
    Removing ambient_light_app.o(.constdata), (31 bytes).
    Removing iic.o(.rev16_text), (4 bytes).
    Removing iic.o(.revsh_text), (4 bytes).
    Removing iic.o(i.IIC_Ack), (112 bytes).
    Removing iic.o(i.IIC_NAck), (112 bytes).
    Removing iic.o(i.IIC_RED_Bytes), (168 bytes).
    Removing iic.o(i.IIC_Read_Byte), (184 bytes).
    Removing iic.o(i.IicGetAppStatus), (12 bytes).
    Removing iic.o(.constdata), (31 bytes).
    Removing control_task.o(.rev16_text), (4 bytes).
    Removing control_task.o(.revsh_text), (4 bytes).
    Removing control_task.o(.constdata), (31 bytes).
    Removing flash.o(.rev16_text), (4 bytes).
    Removing flash.o(.revsh_text), (4 bytes).
    Removing flash.o(.constdata), (31 bytes).
    Removing iap.o(.rev16_text), (4 bytes).
    Removing iap.o(.revsh_text), (4 bytes).
    Removing iap.o(i.IAP_encrypt), (196 bytes).
    Removing iap.o(.constdata), (31 bytes).
    Removing handletemperature.o(.rev16_text), (4 bytes).
    Removing handletemperature.o(.revsh_text), (4 bytes).
    Removing handletemperature.o(.constdata), (31 bytes).
    Removing stateupdate.o(.rev16_text), (4 bytes).
    Removing stateupdate.o(.revsh_text), (4 bytes).
    Removing stateupdate.o(.constdata), (31 bytes).
    Removing turnlightprocess.o(.rev16_text), (4 bytes).
    Removing turnlightprocess.o(.revsh_text), (4 bytes).
    Removing turnlightprocess.o(.constdata), (31 bytes).
    Removing turnlightprocess.o(.data), (10 bytes).
    Removing fm175xx.o(.rev16_text), (4 bytes).
    Removing fm175xx.o(.revsh_text), (4 bytes).
    Removing fm175xx.o(i.FM175XX_SoftReset), (40 bytes).
    Removing fm175xx.o(.constdata), (31 bytes).
    Removing mifare.o(.rev16_text), (4 bytes).
    Removing mifare.o(.revsh_text), (4 bytes).
    Removing mifare.o(i.Mifare_Blockdec), (128 bytes).
    Removing mifare.o(i.Mifare_Blockinc), (132 bytes).
    Removing mifare.o(i.Mifare_Blockset), (116 bytes).
    Removing mifare.o(i.Mifare_Clear_Crypto), (14 bytes).
    Removing mifare.o(i.Mifare_Restore), (160 bytes).
    Removing mifare.o(i.Mifare_Transfer), (92 bytes).
    Removing mifare.o(.constdata), (31 bytes).
    Removing reader_api.o(.rev16_text), (4 bytes).
    Removing reader_api.o(.revsh_text), (4 bytes).
    Removing reader_api.o(i.FM175XX_Initial_ReaderB), (94 bytes).
    Removing reader_api.o(i.ReaderA_Halt), (66 bytes).
    Removing reader_api.o(i.ReaderA_Request), (96 bytes).
    Removing reader_api.o(i.ReaderB_Attrib), (144 bytes).
    Removing reader_api.o(i.ReaderB_GetUID), (108 bytes).
    Removing reader_api.o(i.ReaderB_Request), (144 bytes).
    Removing reader_api.o(i.ReaderB_Wakeup), (148 bytes).
    Removing spi.o(.rev16_text), (4 bytes).
    Removing spi.o(.revsh_text), (4 bytes).
    Removing spi.o(.constdata), (31 bytes).
    Removing variable.o(.rev16_text), (4 bytes).
    Removing variable.o(.revsh_text), (4 bytes).
    Removing variable.o(.constdata), (31 bytes).
    Removing event_groups.o(i.prvTestWaitCondition), (34 bytes).
    Removing event_groups.o(i.uxEventGroupGetNumber), (14 bytes).
    Removing event_groups.o(i.vEventGroupClearBitsCallback), (16 bytes).
    Removing event_groups.o(i.vEventGroupDelete), (68 bytes).
    Removing event_groups.o(i.vEventGroupSetBitsCallback), (16 bytes).
    Removing event_groups.o(i.vEventGroupSetNumber), (4 bytes).
    Removing event_groups.o(i.xEventGroupClearBits), (62 bytes).
    Removing event_groups.o(i.xEventGroupClearBitsFromISR), (28 bytes).
    Removing event_groups.o(i.xEventGroupCreate), (28 bytes).
    Removing event_groups.o(i.xEventGroupGetBitsFromISR), (24 bytes).
    Removing event_groups.o(i.xEventGroupSetBits), (200 bytes).
    Removing event_groups.o(i.xEventGroupSetBitsFromISR), (32 bytes).
    Removing event_groups.o(i.xEventGroupSync), (238 bytes).
    Removing event_groups.o(i.xEventGroupWaitBits), (292 bytes).
    Removing heap_4.o(i.vPortGetHeapStats), (128 bytes).
    Removing heap_4.o(i.vPortInitialiseBlocks), (2 bytes).
    Removing heap_4.o(i.xPortGetFreeHeapSize), (12 bytes).
    Removing heap_4.o(i.xPortGetMinimumEverFreeHeapSize), (12 bytes).
    Removing port.o(i.vPortEndScheduler), (36 bytes).
    Removing queue.o(i.prvGetDisinheritPriorityAfterTimeout), (22 bytes).
    Removing queue.o(i.prvInitialiseMutex), (32 bytes).
    Removing queue.o(i.ucQueueGetQueueType), (8 bytes).
    Removing queue.o(i.uxQueueGetQueueNumber), (6 bytes).
    Removing queue.o(i.uxQueueMessagesWaiting), (28 bytes).
    Removing queue.o(i.uxQueueMessagesWaitingFromISR), (18 bytes).
    Removing queue.o(i.uxQueueSpacesAvailable), (34 bytes).
    Removing queue.o(i.vQueueDelete), (24 bytes).
    Removing queue.o(i.vQueueSetQueueNumber), (4 bytes).
    Removing queue.o(i.xQueueAddToSet), (42 bytes).
    Removing queue.o(i.xQueueCreateCountingSemaphore), (68 bytes).
    Removing queue.o(i.xQueueCreateMutex), (30 bytes).
    Removing queue.o(i.xQueueCreateSet), (20 bytes).
    Removing queue.o(i.xQueueGetMutexHolder), (30 bytes).
    Removing queue.o(i.xQueueGetMutexHolderFromISR), (26 bytes).
    Removing queue.o(i.xQueueGiveFromISR), (196 bytes).
    Removing queue.o(i.xQueueGiveMutexRecursive), (60 bytes).
    Removing queue.o(i.xQueueIsQueueEmptyFromISR), (28 bytes).
    Removing queue.o(i.xQueueIsQueueFullFromISR), (32 bytes).
    Removing queue.o(i.xQueuePeek), (316 bytes).
    Removing queue.o(i.xQueuePeekFromISR), (108 bytes).
    Removing queue.o(i.xQueueReceiveFromISR), (158 bytes).
    Removing queue.o(i.xQueueRemoveFromSet), (46 bytes).
    Removing queue.o(i.xQueueSelectFromSet), (24 bytes).
    Removing queue.o(i.xQueueSelectFromSetFromISR), (22 bytes).
    Removing queue.o(i.xQueueSemaphoreTake), (382 bytes).
    Removing queue.o(i.xQueueTakeMutexRecursive), (62 bytes).
    Removing tasks.o(i.eTaskGetState), (140 bytes).
    Removing tasks.o(i.pcTaskGetName), (36 bytes).
    Removing tasks.o(i.prvListTasksWithinSingleList), (106 bytes).
    Removing tasks.o(i.prvSearchForNameWithinSingleList), (148 bytes).
    Removing tasks.o(i.prvTaskCheckFreeStackSpace), (22 bytes).
    Removing tasks.o(i.prvTaskIsTaskSuspended), (84 bytes).
    Removing tasks.o(i.pvTaskIncrementMutexHeldCount), (32 bytes).
    Removing tasks.o(i.ulTaskNotifyTake), (108 bytes).
    Removing tasks.o(i.ulTaskNotifyValueClear), (48 bytes).
    Removing tasks.o(i.uxTaskGetNumberOfTasks), (12 bytes).
    Removing tasks.o(i.uxTaskGetStackHighWaterMark), (36 bytes).
    Removing tasks.o(i.uxTaskGetStackHighWaterMark2), (36 bytes).
    Removing tasks.o(i.uxTaskGetSystemState), (164 bytes).
    Removing tasks.o(i.uxTaskGetTaskNumber), (16 bytes).
    Removing tasks.o(i.uxTaskPriorityGet), (36 bytes).
    Removing tasks.o(i.uxTaskPriorityGetFromISR), (40 bytes).
    Removing tasks.o(i.uxTaskResetEventItemValue), (28 bytes).
    Removing tasks.o(i.vTaskDelayUntil), (156 bytes).
    Removing tasks.o(i.vTaskEndScheduler), (20 bytes).
    Removing tasks.o(i.vTaskGetInfo), (132 bytes).
    Removing tasks.o(i.vTaskNotifyGiveFromISR), (180 bytes).
    Removing tasks.o(i.vTaskPlaceOnUnorderedEventList), (84 bytes).
    Removing tasks.o(i.vTaskPriorityDisinheritAfterTimeout), (176 bytes).
    Removing tasks.o(i.vTaskPrioritySet), (228 bytes).
    Removing tasks.o(i.vTaskRemoveFromUnorderedEventList), (140 bytes).
    Removing tasks.o(i.vTaskResume), (116 bytes).
    Removing tasks.o(i.vTaskSetTaskNumber), (10 bytes).
    Removing tasks.o(i.vTaskSetTimeOutState), (44 bytes).
    Removing tasks.o(i.vTaskSuspend), (180 bytes).
    Removing tasks.o(i.xTaskAbortDelay), (144 bytes).
    Removing tasks.o(i.xTaskCatchUpTicks), (64 bytes).
    Removing tasks.o(i.xTaskGenericNotify), (244 bytes).
    Removing tasks.o(i.xTaskGenericNotifyFromISR), (288 bytes).
    Removing tasks.o(i.xTaskGetCurrentTaskHandle), (12 bytes).
    Removing tasks.o(i.xTaskGetHandle), (156 bytes).
    Removing tasks.o(i.xTaskGetIdleTaskHandle), (36 bytes).
    Removing tasks.o(i.xTaskGetTickCountFromISR), (12 bytes).
    Removing tasks.o(i.xTaskNotifyStateClear), (56 bytes).
    Removing tasks.o(i.xTaskNotifyWait), (144 bytes).
    Removing tasks.o(i.xTaskPriorityInherit), (164 bytes).
    Removing tasks.o(i.xTaskResumeFromISR), (136 bytes).
    Removing timers.o(i.pcTimerGetName), (18 bytes).
    Removing timers.o(i.prvInitialiseNewTimer), (78 bytes).
    Removing timers.o(i.pvTimerGetTimerID), (30 bytes).
    Removing timers.o(i.uxTimerGetReloadMode), (46 bytes).
    Removing timers.o(i.uxTimerGetTimerNumber), (6 bytes).
    Removing timers.o(i.vTimerSetReloadMode), (58 bytes).
    Removing timers.o(i.vTimerSetTimerID), (30 bytes).
    Removing timers.o(i.vTimerSetTimerNumber), (4 bytes).
    Removing timers.o(i.xTimerCreate), (50 bytes).
    Removing timers.o(i.xTimerGetExpiryTime), (18 bytes).
    Removing timers.o(i.xTimerGetPeriod), (18 bytes).
    Removing timers.o(i.xTimerGetTimerDaemonTaskHandle), (36 bytes).
    Removing timers.o(i.xTimerIsTimerActive), (46 bytes).
    Removing timers.o(i.xTimerPendFunctionCall), (64 bytes).
    Removing timers.o(i.xTimerPendFunctionCallFromISR), (52 bytes).

709 unused section(s) (total 32408 bytes) removed from the image.

==============================================================================

Image Symbol Table

    Local Symbols

    Symbol Name                              Value     Ov Type        Size  Object(Section)

    ../clib/../cmprslib/zerorunl2.c          0x00000000   Number         0  __dczerorl2.o ABSOLUTE
    ../clib/microlib/division.c              0x00000000   Number         0  idiv.o ABSOLUTE
    ../clib/microlib/division.c              0x00000000   Number         0  uidiv.o ABSOLUTE
    ../clib/microlib/init/entry.s            0x00000000   Number         0  entry9b.o ABSOLUTE
    ../clib/microlib/init/entry.s            0x00000000   Number         0  entry7b.o ABSOLUTE
    ../clib/microlib/init/entry.s            0x00000000   Number         0  entry8a.o ABSOLUTE
    ../clib/microlib/init/entry.s            0x00000000   Number         0  entry8b.o ABSOLUTE
    ../clib/microlib/init/entry.s            0x00000000   Number         0  entry11b.o ABSOLUTE
    ../clib/microlib/init/entry.s            0x00000000   Number         0  entry12b.o ABSOLUTE
    ../clib/microlib/init/entry.s            0x00000000   Number         0  entry12a.o ABSOLUTE
    ../clib/microlib/init/entry.s            0x00000000   Number         0  entry9a.o ABSOLUTE
    ../clib/microlib/init/entry.s            0x00000000   Number         0  entry7a.o ABSOLUTE
    ../clib/microlib/init/entry.s            0x00000000   Number         0  entry10a.o ABSOLUTE
    ../clib/microlib/init/entry.s            0x00000000   Number         0  entry10b.o ABSOLUTE
    ../clib/microlib/init/entry.s            0x00000000   Number         0  entry.o ABSOLUTE
    ../clib/microlib/init/entry.s            0x00000000   Number         0  entry5.o ABSOLUTE
    ../clib/microlib/init/entry.s            0x00000000   Number         0  entry2.o ABSOLUTE
    ../clib/microlib/init/entry.s            0x00000000   Number         0  entry11a.o ABSOLUTE
    ../clib/microlib/string/memcpy.c         0x00000000   Number         0  memcpyb.o ABSOLUTE
    ../clib/microlib/string/memcpy.c         0x00000000   Number         0  memcpya.o ABSOLUTE
    ../clib/microlib/string/memset.c         0x00000000   Number         0  memseta.o ABSOLUTE
    ../clib/microlib/string/strlen.c         0x00000000   Number         0  strlen.o ABSOLUTE
    ..\Libraries\CMSIS\ST\STM32F0xx\Source\Templates\arm\startup_stm32f072.s 0x00000000   Number         0  startup_stm32f072.o ABSOLUTE
    ..\Libraries\CMSIS\ST\STM32F0xx\Source\Templates\system_stm32f0xx.c 0x00000000   Number         0  system_stm32f0xx.o ABSOLUTE
    ..\Libraries\STM32F0xx_StdPeriph_Driver\src\stm32f0xx_adc.c 0x00000000   Number         0  stm32f0xx_adc.o ABSOLUTE
    ..\Libraries\STM32F0xx_StdPeriph_Driver\src\stm32f0xx_can.c 0x00000000   Number         0  stm32f0xx_can.o ABSOLUTE
    ..\Libraries\STM32F0xx_StdPeriph_Driver\src\stm32f0xx_cec.c 0x00000000   Number         0  stm32f0xx_cec.o ABSOLUTE
    ..\Libraries\STM32F0xx_StdPeriph_Driver\src\stm32f0xx_comp.c 0x00000000   Number         0  stm32f0xx_comp.o ABSOLUTE
    ..\Libraries\STM32F0xx_StdPeriph_Driver\src\stm32f0xx_crc.c 0x00000000   Number         0  stm32f0xx_crc.o ABSOLUTE
    ..\Libraries\STM32F0xx_StdPeriph_Driver\src\stm32f0xx_crs.c 0x00000000   Number         0  stm32f0xx_crs.o ABSOLUTE
    ..\Libraries\STM32F0xx_StdPeriph_Driver\src\stm32f0xx_dac.c 0x00000000   Number         0  stm32f0xx_dac.o ABSOLUTE
    ..\Libraries\STM32F0xx_StdPeriph_Driver\src\stm32f0xx_dbgmcu.c 0x00000000   Number         0  stm32f0xx_dbgmcu.o ABSOLUTE
    ..\Libraries\STM32F0xx_StdPeriph_Driver\src\stm32f0xx_dma.c 0x00000000   Number         0  stm32f0xx_dma.o ABSOLUTE
    ..\Libraries\STM32F0xx_StdPeriph_Driver\src\stm32f0xx_exti.c 0x00000000   Number         0  stm32f0xx_exti.o ABSOLUTE
    ..\Libraries\STM32F0xx_StdPeriph_Driver\src\stm32f0xx_flash.c 0x00000000   Number         0  stm32f0xx_flash.o ABSOLUTE
    ..\Libraries\STM32F0xx_StdPeriph_Driver\src\stm32f0xx_gpio.c 0x00000000   Number         0  stm32f0xx_gpio.o ABSOLUTE
    ..\Libraries\STM32F0xx_StdPeriph_Driver\src\stm32f0xx_i2c.c 0x00000000   Number         0  stm32f0xx_i2c.o ABSOLUTE
    ..\Libraries\STM32F0xx_StdPeriph_Driver\src\stm32f0xx_iwdg.c 0x00000000   Number         0  stm32f0xx_iwdg.o ABSOLUTE
    ..\Libraries\STM32F0xx_StdPeriph_Driver\src\stm32f0xx_misc.c 0x00000000   Number         0  stm32f0xx_misc.o ABSOLUTE
    ..\Libraries\STM32F0xx_StdPeriph_Driver\src\stm32f0xx_pwr.c 0x00000000   Number         0  stm32f0xx_pwr.o ABSOLUTE
    ..\Libraries\STM32F0xx_StdPeriph_Driver\src\stm32f0xx_rcc.c 0x00000000   Number         0  stm32f0xx_rcc.o ABSOLUTE
    ..\Libraries\STM32F0xx_StdPeriph_Driver\src\stm32f0xx_rtc.c 0x00000000   Number         0  stm32f0xx_rtc.o ABSOLUTE
    ..\Libraries\STM32F0xx_StdPeriph_Driver\src\stm32f0xx_spi.c 0x00000000   Number         0  stm32f0xx_spi.o ABSOLUTE
    ..\Libraries\STM32F0xx_StdPeriph_Driver\src\stm32f0xx_syscfg.c 0x00000000   Number         0  stm32f0xx_syscfg.o ABSOLUTE
    ..\Libraries\STM32F0xx_StdPeriph_Driver\src\stm32f0xx_tim.c 0x00000000   Number         0  stm32f0xx_tim.o ABSOLUTE
    ..\Libraries\STM32F0xx_StdPeriph_Driver\src\stm32f0xx_usart.c 0x00000000   Number         0  stm32f0xx_usart.o ABSOLUTE
    ..\Libraries\STM32F0xx_StdPeriph_Driver\src\stm32f0xx_wwdg.c 0x00000000   Number         0  stm32f0xx_wwdg.o ABSOLUTE
    ..\\Libraries\\CMSIS\\ST\\STM32F0xx\\Source\\Templates\\system_stm32f0xx.c 0x00000000   Number         0  system_stm32f0xx.o ABSOLUTE
    ..\\Libraries\\STM32F0xx_StdPeriph_Driver\\src\\stm32f0xx_adc.c 0x00000000   Number         0  stm32f0xx_adc.o ABSOLUTE
    ..\\Libraries\\STM32F0xx_StdPeriph_Driver\\src\\stm32f0xx_can.c 0x00000000   Number         0  stm32f0xx_can.o ABSOLUTE
    ..\\Libraries\\STM32F0xx_StdPeriph_Driver\\src\\stm32f0xx_cec.c 0x00000000   Number         0  stm32f0xx_cec.o ABSOLUTE
    ..\\Libraries\\STM32F0xx_StdPeriph_Driver\\src\\stm32f0xx_comp.c 0x00000000   Number         0  stm32f0xx_comp.o ABSOLUTE
    ..\\Libraries\\STM32F0xx_StdPeriph_Driver\\src\\stm32f0xx_crc.c 0x00000000   Number         0  stm32f0xx_crc.o ABSOLUTE
    ..\\Libraries\\STM32F0xx_StdPeriph_Driver\\src\\stm32f0xx_crs.c 0x00000000   Number         0  stm32f0xx_crs.o ABSOLUTE
    ..\\Libraries\\STM32F0xx_StdPeriph_Driver\\src\\stm32f0xx_dac.c 0x00000000   Number         0  stm32f0xx_dac.o ABSOLUTE
    ..\\Libraries\\STM32F0xx_StdPeriph_Driver\\src\\stm32f0xx_dbgmcu.c 0x00000000   Number         0  stm32f0xx_dbgmcu.o ABSOLUTE
    ..\\Libraries\\STM32F0xx_StdPeriph_Driver\\src\\stm32f0xx_dma.c 0x00000000   Number         0  stm32f0xx_dma.o ABSOLUTE
    ..\\Libraries\\STM32F0xx_StdPeriph_Driver\\src\\stm32f0xx_exti.c 0x00000000   Number         0  stm32f0xx_exti.o ABSOLUTE
    ..\\Libraries\\STM32F0xx_StdPeriph_Driver\\src\\stm32f0xx_flash.c 0x00000000   Number         0  stm32f0xx_flash.o ABSOLUTE
    ..\\Libraries\\STM32F0xx_StdPeriph_Driver\\src\\stm32f0xx_gpio.c 0x00000000   Number         0  stm32f0xx_gpio.o ABSOLUTE
    ..\\Libraries\\STM32F0xx_StdPeriph_Driver\\src\\stm32f0xx_i2c.c 0x00000000   Number         0  stm32f0xx_i2c.o ABSOLUTE
    ..\\Libraries\\STM32F0xx_StdPeriph_Driver\\src\\stm32f0xx_iwdg.c 0x00000000   Number         0  stm32f0xx_iwdg.o ABSOLUTE
    ..\\Libraries\\STM32F0xx_StdPeriph_Driver\\src\\stm32f0xx_misc.c 0x00000000   Number         0  stm32f0xx_misc.o ABSOLUTE
    ..\\Libraries\\STM32F0xx_StdPeriph_Driver\\src\\stm32f0xx_pwr.c 0x00000000   Number         0  stm32f0xx_pwr.o ABSOLUTE
    ..\\Libraries\\STM32F0xx_StdPeriph_Driver\\src\\stm32f0xx_rcc.c 0x00000000   Number         0  stm32f0xx_rcc.o ABSOLUTE
    ..\\Libraries\\STM32F0xx_StdPeriph_Driver\\src\\stm32f0xx_rtc.c 0x00000000   Number         0  stm32f0xx_rtc.o ABSOLUTE
    ..\\Libraries\\STM32F0xx_StdPeriph_Driver\\src\\stm32f0xx_spi.c 0x00000000   Number         0  stm32f0xx_spi.o ABSOLUTE
    ..\\Libraries\\STM32F0xx_StdPeriph_Driver\\src\\stm32f0xx_syscfg.c 0x00000000   Number         0  stm32f0xx_syscfg.o ABSOLUTE
    ..\\Libraries\\STM32F0xx_StdPeriph_Driver\\src\\stm32f0xx_tim.c 0x00000000   Number         0  stm32f0xx_tim.o ABSOLUTE
    ..\\Libraries\\STM32F0xx_StdPeriph_Driver\\src\\stm32f0xx_usart.c 0x00000000   Number         0  stm32f0xx_usart.o ABSOLUTE
    ..\\Libraries\\STM32F0xx_StdPeriph_Driver\\src\\stm32f0xx_wwdg.c 0x00000000   Number         0  stm32f0xx_wwdg.o ABSOLUTE
    ..\\src\\User_Com_Task\\ParseFrame.c     0x00000000   Number         0  parseframe.o ABSOLUTE
    ..\\src\\User_Com_Task\\UART_3.c         0x00000000   Number         0  uart_3.o ABSOLUTE
    ..\\src\\User_Com_Task\\User_Com_Task.c  0x00000000   Number         0  user_com_task.o ABSOLUTE
    ..\\src\\User_Control_Task\\Control_task.c 0x00000000   Number         0  control_task.o ABSOLUTE
    ..\\src\\User_Control_Task\\Flash.c      0x00000000   Number         0  flash.o ABSOLUTE
    ..\\src\\User_Control_Task\\HandleTemperature.c 0x00000000   Number         0  handletemperature.o ABSOLUTE
    ..\\src\\User_Control_Task\\IAP.c        0x00000000   Number         0  iap.o ABSOLUTE
    ..\\src\\User_Control_Task\\StateUpdate.c 0x00000000   Number         0  stateupdate.o ABSOLUTE
    ..\\src\\User_Control_Task\\TurnLightProcess.c 0x00000000   Number         0  turnlightprocess.o ABSOLUTE
    ..\\src\\User_Display_Task\\Ambient_Light_App.c 0x00000000   Number         0  ambient_light_app.o ABSOLUTE
    ..\\src\\User_Display_Task\\Dis_Task.c   0x00000000   Number         0  dis_task.o ABSOLUTE
    ..\\src\\User_Display_Task\\LED_Others.c 0x00000000   Number         0  led_others.o ABSOLUTE
    ..\\src\\User_Display_Task\\iic.c        0x00000000   Number         0  iic.o ABSOLUTE
    ..\\src\\User_Drive\\variable.c          0x00000000   Number         0  variable.o ABSOLUTE
    ..\\src\\User_Main_Task\\Gpio.c          0x00000000   Number         0  gpio.o ABSOLUTE
    ..\\src\\User_Main_Task\\System_Config.c 0x00000000   Number         0  system_config.o ABSOLUTE
    ..\\src\\User_Main_Task\\Universal_Init.c 0x00000000   Number         0  universal_init.o ABSOLUTE
    ..\\src\\User_Main_Task\\main.c          0x00000000   Number         0  main.o ABSOLUTE
    ..\\src\\User_NFC_Task\\FM175XX.c        0x00000000   Number         0  fm175xx.o ABSOLUTE
    ..\\src\\User_NFC_Task\\MIFARE.c         0x00000000   Number         0  mifare.o ABSOLUTE
    ..\\src\\User_NFC_Task\\READER_API.c     0x00000000   Number         0  reader_api.o ABSOLUTE
    ..\\src\\User_NFC_Task\\spi.c            0x00000000   Number         0  spi.o ABSOLUTE
    ..\src\User_Com_Task\ParseFrame.c        0x00000000   Number         0  parseframe.o ABSOLUTE
    ..\src\User_Com_Task\UART_3.c            0x00000000   Number         0  uart_3.o ABSOLUTE
    ..\src\User_Com_Task\User_Com_Task.c     0x00000000   Number         0  user_com_task.o ABSOLUTE
    ..\src\User_Control_Task\Control_task.c  0x00000000   Number         0  control_task.o ABSOLUTE
    ..\src\User_Control_Task\Flash.c         0x00000000   Number         0  flash.o ABSOLUTE
    ..\src\User_Control_Task\HandleTemperature.c 0x00000000   Number         0  handletemperature.o ABSOLUTE
    ..\src\User_Control_Task\IAP.c           0x00000000   Number         0  iap.o ABSOLUTE
    ..\src\User_Control_Task\StateUpdate.c   0x00000000   Number         0  stateupdate.o ABSOLUTE
    ..\src\User_Control_Task\TurnLightProcess.c 0x00000000   Number         0  turnlightprocess.o ABSOLUTE
    ..\src\User_Display_Task\Ambient_Light_App.c 0x00000000   Number         0  ambient_light_app.o ABSOLUTE
    ..\src\User_Display_Task\Dis_Task.c      0x00000000   Number         0  dis_task.o ABSOLUTE
    ..\src\User_Display_Task\LED_Others.c    0x00000000   Number         0  led_others.o ABSOLUTE
    ..\src\User_Display_Task\iic.c           0x00000000   Number         0  iic.o ABSOLUTE
    ..\src\User_Drive\variable.c             0x00000000   Number         0  variable.o ABSOLUTE
    ..\src\User_Main_Task\Gpio.c             0x00000000   Number         0  gpio.o ABSOLUTE
    ..\src\User_Main_Task\System_Config.c    0x00000000   Number         0  system_config.o ABSOLUTE
    ..\src\User_Main_Task\Universal_Init.c   0x00000000   Number         0  universal_init.o ABSOLUTE
    ..\src\User_Main_Task\main.c             0x00000000   Number         0  main.o ABSOLUTE
    ..\src\User_NFC_Task\FM175XX.c           0x00000000   Number         0  fm175xx.o ABSOLUTE
    ..\src\User_NFC_Task\MIFARE.c            0x00000000   Number         0  mifare.o ABSOLUTE
    ..\src\User_NFC_Task\READER_API.c        0x00000000   Number         0  reader_api.o ABSOLUTE
    ..\src\User_NFC_Task\spi.c               0x00000000   Number         0  spi.o ABSOLUTE
    C:\Keil_v5\ARM\PACK\ARM\CMSIS-FreeRTOS\10.3.1\CMSIS\RTOS2\FreeRTOS\Source\freertos_evr.c 0x00000000   Number         0  freertos_evr.o ABSOLUTE
    C:\Keil_v5\ARM\PACK\ARM\CMSIS-FreeRTOS\10.3.1\Source\event_groups.c 0x00000000   Number         0  event_groups.o ABSOLUTE
    C:\Keil_v5\ARM\PACK\ARM\CMSIS-FreeRTOS\10.3.1\Source\list.c 0x00000000   Number         0  list.o ABSOLUTE
    C:\Keil_v5\ARM\PACK\ARM\CMSIS-FreeRTOS\10.3.1\Source\portable\MemMang\heap_4.c 0x00000000   Number         0  heap_4.o ABSOLUTE
    C:\Keil_v5\ARM\PACK\ARM\CMSIS-FreeRTOS\10.3.1\Source\portable\RVDS\ARM_CM0\port.c 0x00000000   Number         0  port.o ABSOLUTE
    C:\Keil_v5\ARM\PACK\ARM\CMSIS-FreeRTOS\10.3.1\Source\queue.c 0x00000000   Number         0  queue.o ABSOLUTE
    C:\Keil_v5\ARM\PACK\ARM\CMSIS-FreeRTOS\10.3.1\Source\tasks.c 0x00000000   Number         0  tasks.o ABSOLUTE
    C:\Keil_v5\ARM\PACK\ARM\CMSIS-FreeRTOS\10.3.1\Source\timers.c 0x00000000   Number         0  timers.o ABSOLUTE
    C:\\Keil_v5\\ARM\\PACK\\ARM\\CMSIS-FreeRTOS\\10.3.1\\Source\\portable\\RVDS\\ARM_CM0\\port.c 0x00000000   Number         0  port.o ABSOLUTE
    dc.s                                     0x00000000   Number         0  dc.o ABSOLUTE
    handlers.s                               0x00000000   Number         0  handlers.o ABSOLUTE
    init.s                                   0x00000000   Number         0  init.o ABSOLUTE
    RESET                                    0x08001000   Section      192  startup_stm32f072.o(RESET)
    .ARM.Collect$$$$00000000                 0x080010c0   Section        0  entry.o(.ARM.Collect$$$$00000000)
    .ARM.Collect$$$$00000001                 0x080010c0   Section        4  entry2.o(.ARM.Collect$$$$00000001)
    .ARM.Collect$$$$00000004                 0x080010c4   Section        4  entry5.o(.ARM.Collect$$$$00000004)
    .ARM.Collect$$$$00000008                 0x080010c8   Section        0  entry7b.o(.ARM.Collect$$$$00000008)
    .ARM.Collect$$$$0000000A                 0x080010c8   Section        0  entry8b.o(.ARM.Collect$$$$0000000A)
    .ARM.Collect$$$$0000000B                 0x080010c8   Section        8  entry9a.o(.ARM.Collect$$$$0000000B)
    .ARM.Collect$$$$0000000E                 0x080010d0   Section        4  entry12b.o(.ARM.Collect$$$$0000000E)
    .ARM.Collect$$$$0000000F                 0x080010d4   Section        0  entry10a.o(.ARM.Collect$$$$0000000F)
    .ARM.Collect$$$$00000011                 0x080010d4   Section        0  entry11a.o(.ARM.Collect$$$$00000011)
    .ARM.Collect$$$$00002712                 0x080010d4   Section        4  entry2.o(.ARM.Collect$$$$00002712)
    __lit__00000000                          0x080010d4   Data           4  entry2.o(.ARM.Collect$$$$00002712)
    .text                                    0x080010d8   Section       28  startup_stm32f072.o(.text)
    i.ADC_StartOfConversion                  0x080010f4   Section        0  stm32f0xx_adc.o(i.ADC_StartOfConversion)
    i.RE_LPCD_CALIBRATION                    0x080010fe   Section        0  reader_api.o(i.RE_LPCD_CALIBRATION)
    .ARM.__AT_0x08001100                     0x08001100   Section       16  iap.o(.ARM.__AT_0x08001100)
    check_code                               0x08001100   Data          16  iap.o(.ARM.__AT_0x08001100)
    .emb_text                                0x08001110   Section      120  port.o(.emb_text)
    .text                                    0x08001188   Section        0  uidiv.o(.text)
    .text                                    0x080011b4   Section        0  idiv.o(.text)
    .text                                    0x080011dc   Section        0  memcpya.o(.text)
    .text                                    0x08001200   Section        0  memseta.o(.text)
    .text                                    0x08001224   Section       36  init.o(.text)
    .text                                    0x08001248   Section        0  __dczerorl2.o(.text)
    i.ADCDMAConfiguration                    0x080012a0   Section        0  universal_init.o(i.ADCDMAConfiguration)
    i.ADC_ChannelConfig                      0x080012f8   Section        0  stm32f0xx_adc.o(i.ADC_ChannelConfig)
    i.ADC_Cmd                                0x08001310   Section        0  stm32f0xx_adc.o(i.ADC_Cmd)
    i.ADC_DMACmd                             0x08001328   Section        0  stm32f0xx_adc.o(i.ADC_DMACmd)
    i.ADC_DMARequestModeConfig               0x08001340   Section        0  stm32f0xx_adc.o(i.ADC_DMARequestModeConfig)
    i.ADC_DeInit                             0x08001350   Section        0  stm32f0xx_adc.o(i.ADC_DeInit)
    i.ADC_GetCalibrationFactor               0x08001370   Section        0  stm32f0xx_adc.o(i.ADC_GetCalibrationFactor)
    i.ADC_GetFlagStatus                      0x080013ac   Section        0  stm32f0xx_adc.o(i.ADC_GetFlagStatus)
    i.ADC_Get_ConversionValue                0x080013dc   Section        0  universal_init.o(i.ADC_Get_ConversionValue)
    i.ADC_Init                               0x08001408   Section        0  stm32f0xx_adc.o(i.ADC_Init)
    i.ADC_Int                                0x08001434   Section        0  universal_init.o(i.ADC_Int)
    i.ADC_StructInit                         0x08001560   Section        0  stm32f0xx_adc.o(i.ADC_StructInit)
    i.ALL_RGB_OFF                            0x08001570   Section        0  led_others.o(i.ALL_RGB_OFF)
    i.Ambient_ClearColor                     0x0800157e   Section        0  ambient_light_app.o(i.Ambient_ClearColor)
    i.Ambient_Light_ALL_Pro                  0x08001588   Section        0  ambient_light_app.o(i.Ambient_Light_ALL_Pro)
    i.Ambient_Light_Breathe_Pro              0x0800169c   Section        0  ambient_light_app.o(i.Ambient_Light_Breathe_Pro)
    i.Ambient_Light_Changliang               0x080017b4   Section        0  ambient_light_app.o(i.Ambient_Light_Changliang)
    i.Ambient_Light_Malloc_Init              0x08001818   Section        0  ambient_light_app.o(i.Ambient_Light_Malloc_Init)
    i.Ambient_Light_Set                      0x0800185c   Section        0  ambient_light_app.o(i.Ambient_Light_Set)
    i.Ambient_Timer_Cmp_Update               0x080018ac   Section        0  ambient_light_app.o(i.Ambient_Timer_Cmp_Update)
    i.Ambient_Timer_Init                     0x080018d0   Section        0  universal_init.o(i.Ambient_Timer_Init)
    i.Ambient_light_Start                    0x08001998   Section        0  ambient_light_app.o(i.Ambient_light_Start)
    i.Ambientlight_breath                    0x080019a4   Section        0  led_others.o(i.Ambientlight_breath)
    i.Beep_Ctrl_Pro                          0x08001a48   Section        0  control_task.o(i.Beep_Ctrl_Pro)
    i.COM1_Task                              0x08001b3c   Section        0  user_com_task.o(i.COM1_Task)
    i.COM_Overtime_Check_Pro                 0x08001bb4   Section        0  control_task.o(i.COM_Overtime_Check_Pro)
    COM_Overtime_Check_Pro                   0x08001bb5   Thumb Code    80  control_task.o(i.COM_Overtime_Check_Pro)
    i.Calculate_Value_By_Linertable          0x08001c10   Section        0  handletemperature.o(i.Calculate_Value_By_Linertable)
    Calculate_Value_By_Linertable            0x08001c11   Thumb Code   146  handletemperature.o(i.Calculate_Value_By_Linertable)
    i.CheckSum                               0x08001ca2   Section        0  parseframe.o(i.CheckSum)
    i.Check_IAP_Mode                         0x08001cc0   Section        0  stateupdate.o(i.Check_IAP_Mode)
    i.ClearErrorByte                         0x08001d04   Section        0  system_config.o(i.ClearErrorByte)
    i.Clear_FIFO                             0x08001d18   Section        0  fm175xx.o(i.Clear_FIFO)
    i.Command_Execute                        0x08001d38   Section        0  reader_api.o(i.Command_Execute)
    i.Control_Task                           0x08001f74   Section        0  control_task.o(i.Control_Task)
    i.DMA1_Channel2_3_IRQHandler             0x08001f88   Section        0  uart_3.o(i.DMA1_Channel2_3_IRQHandler)
    i.DMA_ClearFlag                          0x08001fdc   Section        0  stm32f0xx_dma.o(i.DMA_ClearFlag)
    i.DMA_ClearITPendingBit                  0x08001fe8   Section        0  stm32f0xx_dma.o(i.DMA_ClearITPendingBit)
    i.DMA_Cmd                                0x08001ff4   Section        0  stm32f0xx_dma.o(i.DMA_Cmd)
    i.DMA_DeInit                             0x08002010   Section        0  stm32f0xx_dma.o(i.DMA_DeInit)
    i.DMA_GetITStatus                        0x080020e8   Section        0  stm32f0xx_dma.o(i.DMA_GetITStatus)
    i.DMA_ITConfig                           0x08002104   Section        0  stm32f0xx_dma.o(i.DMA_ITConfig)
    i.DMA_Init                               0x08002118   Section        0  stm32f0xx_dma.o(i.DMA_Init)
    i.DMA_SetCurrDataCounter                 0x08002158   Section        0  stm32f0xx_dma.o(i.DMA_SetCurrDataCounter)
    i.DMA_StructInit                         0x0800215c   Section        0  stm32f0xx_dma.o(i.DMA_StructInit)
    i.Dis_4LED                               0x08002178   Section        0  dis_task.o(i.Dis_4LED)
    i.Disable_Interrupt                      0x08002300   Section        0  system_config.o(i.Disable_Interrupt)
    i.Display_Task                           0x08002304   Section        0  dis_task.o(i.Display_Task)
    i.EXTI2_3_IRQHandler                     0x08002368   Section        0  spi.o(i.EXTI2_3_IRQHandler)
    i.EXTI_ClearITPendingBit                 0x08002388   Section        0  stm32f0xx_exti.o(i.EXTI_ClearITPendingBit)
    i.EXTI_Config                            0x08002394   Section        0  spi.o(i.EXTI_Config)
    i.EXTI_GetITStatus                       0x080023d8   Section        0  stm32f0xx_exti.o(i.EXTI_GetITStatus)
    i.EXTI_Init                              0x080023f4   Section        0  stm32f0xx_exti.o(i.EXTI_Init)
    i.Enable_Interrupt                       0x0800247c   Section        0  system_config.o(i.Enable_Interrupt)
    i.FLASH_ErasePage                        0x08002480   Section        0  stm32f0xx_flash.o(i.FLASH_ErasePage)
    i.FLASH_GetStatus                        0x080024d4   Section        0  stm32f0xx_flash.o(i.FLASH_GetStatus)
    i.FLASH_Lock                             0x08002510   Section        0  stm32f0xx_flash.o(i.FLASH_Lock)
    i.FLASH_ProgramHalfWord                  0x08002524   Section        0  stm32f0xx_flash.o(i.FLASH_ProgramHalfWord)
    i.FLASH_ProgramWord                      0x08002568   Section        0  stm32f0xx_flash.o(i.FLASH_ProgramWord)
    i.FLASH_Unlock                           0x080025dc   Section        0  stm32f0xx_flash.o(i.FLASH_Unlock)
    i.FLASH_WaitForLastOperation             0x08002600   Section        0  stm32f0xx_flash.o(i.FLASH_WaitForLastOperation)
    i.FM175XX_HPD                            0x08002628   Section        0  fm175xx.o(i.FM175XX_HPD)
    i.FM175XX_HardReset                      0x08002654   Section        0  fm175xx.o(i.FM175XX_HardReset)
    i.FM175XX_Initial_ReaderA                0x08002690   Section        0  reader_api.o(i.FM175XX_Initial_ReaderA)
    i.FM175XX_Polling                        0x080026de   Section        0  reader_api.o(i.FM175XX_Polling)
    i.Flash_PagesMask                        0x08002716   Section        0  flash.o(i.Flash_PagesMask)
    i.Flash_Prepared                         0x0800272e   Section        0  flash.o(i.Flash_Prepared)
    i.Flash_Read                             0x08002778   Section        0  flash.o(i.Flash_Read)
    i.Flash_Write                            0x0800278c   Section        0  flash.o(i.Flash_Write)
    i.Flash_Write_Word                       0x080027dc   Section        0  flash.o(i.Flash_Write_Word)
    i.FormatFrame                            0x0800283e   Section        0  parseframe.o(i.FormatFrame)
    i.FrontLightProcess                      0x080028c4   Section        0  control_task.o(i.FrontLightProcess)
    i.GPIO_Init                              0x080028d0   Section        0  stm32f0xx_gpio.o(i.GPIO_Init)
    i.GPIO_PinAFConfig                       0x08002960   Section        0  stm32f0xx_gpio.o(i.GPIO_PinAFConfig)
    i.GPIO_ReadInputDataBit                  0x080029a4   Section        0  stm32f0xx_gpio.o(i.GPIO_ReadInputDataBit)
    i.GPIO_ResetBits                         0x080029b8   Section        0  stm32f0xx_gpio.o(i.GPIO_ResetBits)
    i.GPIO_SetBits                           0x080029bc   Section        0  stm32f0xx_gpio.o(i.GPIO_SetBits)
    i.GPIO_StructInit                        0x080029c0   Section        0  stm32f0xx_gpio.o(i.GPIO_StructInit)
    i.GetReg                                 0x080029d8   Section        0  fm175xx.o(i.GetReg)
    i.GetReg_Ext                             0x08002a58   Section        0  fm175xx.o(i.GetReg_Ext)
    i.Get_RealVaule                          0x08002a74   Section        0  universal_init.o(i.Get_RealVaule)
    i.Handle_RGB_Control                     0x08002b44   Section        0  led_others.o(i.Handle_RGB_Control)
    i.Handle_Temp_Ctr                        0x08002bbc   Section        0  handletemperature.o(i.Handle_Temp_Ctr)
    i.Handle_Temp_Set                        0x08002d30   Section        0  universal_init.o(i.Handle_Temp_Set)
    i.Handle_Timer_Init                      0x08002d50   Section        0  universal_init.o(i.Handle_Timer_Init)
    i.IAP_EraseSWFlash                       0x08002de8   Section        0  iap.o(i.IAP_EraseSWFlash)
    i.IAP_Init                               0x08002e08   Section        0  iap.o(i.IAP_Init)
    i.IAP_ParseFrame                         0x08002e40   Section        0  iap.o(i.IAP_ParseFrame)
    i.IAP_Reset                              0x08003198   Section        0  iap.o(i.IAP_Reset)
    i.IAP_SaveFCtrlmap                       0x080031f8   Section        0  iap.o(i.IAP_SaveFCtrlmap)
    i.IAP_decrypt                            0x0800322c   Section        0  iap.o(i.IAP_decrypt)
    i.IIC_Init                               0x080032f4   Section        0  iic.o(i.IIC_Init)
    i.IIC_PushFrame                          0x08003320   Section        0  iic.o(i.IIC_PushFrame)
    i.IIC_Send_Byte                          0x0800335c   Section        0  iic.o(i.IIC_Send_Byte)
    i.IIC_Send_Bytes                         0x08003420   Section        0  iic.o(i.IIC_Send_Bytes)
    IIC_Send_Bytes                           0x08003421   Thumb Code   134  iic.o(i.IIC_Send_Bytes)
    i.IIC_Send_Command                       0x080034ac   Section        0  iic.o(i.IIC_Send_Command)
    IIC_Send_Command                         0x080034ad   Thumb Code    72  iic.o(i.IIC_Send_Command)
    i.IIC_Start                              0x080034f4   Section        0  iic.o(i.IIC_Start)
    IIC_Start                                0x080034f5   Thumb Code   130  iic.o(i.IIC_Start)
    i.IIC_Stop                               0x08003580   Section        0  iic.o(i.IIC_Stop)
    IIC_Stop                                 0x08003581   Thumb Code   136  iic.o(i.IIC_Stop)
    i.IIC_Wait_Ack                           0x0800360c   Section        0  iic.o(i.IIC_Wait_Ack)
    IIC_Wait_Ack                             0x0800360d   Thumb Code   140  iic.o(i.IIC_Wait_Ack)
    i.IicProcess                             0x080036a0   Section        0  iic.o(i.IicProcess)
    i.InitAllPeripherals                     0x080036f4   Section        0  system_config.o(i.InitAllPeripherals)
    i.Init_Show_Process                      0x08003778   Section        0  dis_task.o(i.Init_Show_Process)
    Init_Show_Process                        0x08003779   Thumb Code    50  dis_task.o(i.Init_Show_Process)
    i.JUDGE                                  0x080037b0   Section        0  reader_api.o(i.JUDGE)
    i.LED_DMA_Refresh                        0x080037d4   Section        0  led_others.o(i.LED_DMA_Refresh)
    i.LPCD_Read                              0x08003824   Section        0  reader_api.o(i.LPCD_Read)
    i.Linear_Table                           0x0800396c   Section        0  handletemperature.o(i.Linear_Table)
    Linear_Table                             0x0800396d   Thumb Code    64  handletemperature.o(i.Linear_Table)
    i.Lpcd_Calibrate_Driver                  0x080039ac   Section        0  reader_api.o(i.Lpcd_Calibrate_Driver)
    i.Lpcd_Calibrate_Reference               0x08003aa0   Section        0  reader_api.o(i.Lpcd_Calibrate_Reference)
    i.Lpcd_Calibration_Backup                0x08003b1c   Section        0  reader_api.o(i.Lpcd_Calibration_Backup)
    i.Lpcd_Calibration_Event                 0x08003b34   Section        0  reader_api.o(i.Lpcd_Calibration_Event)
    i.Lpcd_Calibration_Restore               0x08003b68   Section        0  reader_api.o(i.Lpcd_Calibration_Restore)
    i.Lpcd_Get_Calibration_Value             0x08003bb8   Section        0  reader_api.o(i.Lpcd_Get_Calibration_Value)
    i.Lpcd_Get_IRQ                           0x08003c02   Section        0  reader_api.o(i.Lpcd_Get_IRQ)
    i.Lpcd_Get_Value                         0x08003c12   Section        0  reader_api.o(i.Lpcd_Get_Value)
    i.Lpcd_IRQ_Event                         0x08003c42   Section        0  reader_api.o(i.Lpcd_IRQ_Event)
    i.Lpcd_Init_Register                     0x08003c50   Section        0  reader_api.o(i.Lpcd_Init_Register)
    i.Lpcd_Reset_Status                      0x08003c7a   Section        0  reader_api.o(i.Lpcd_Reset_Status)
    i.Lpcd_Set_Driver                        0x08003c90   Section        0  reader_api.o(i.Lpcd_Set_Driver)
    i.Lpcd_Set_Gain                          0x08003cee   Section        0  reader_api.o(i.Lpcd_Set_Gain)
    i.Lpcd_Set_IE                            0x08003d02   Section        0  reader_api.o(i.Lpcd_Set_IE)
    i.Lpcd_Set_IRQ_pin                       0x08003d1e   Section        0  reader_api.o(i.Lpcd_Set_IRQ_pin)
    i.Lpcd_Set_Mode                          0x08003d32   Section        0  reader_api.o(i.Lpcd_Set_Mode)
    i.Lpcd_Set_Reference                     0x08003d54   Section        0  reader_api.o(i.Lpcd_Set_Reference)
    i.Lpcd_Set_Threshold                     0x08003d7e   Section        0  reader_api.o(i.Lpcd_Set_Threshold)
    i.Lpcd_Set_Timer                         0x08003db8   Section        0  reader_api.o(i.Lpcd_Set_Timer)
    i.Lpcd_WaitFor_Irq                       0x08003e70   Section        0  reader_api.o(i.Lpcd_WaitFor_Irq)
    i.Mifare_Auth                            0x08003eaa   Section        0  mifare.o(i.Mifare_Auth)
    i.Mifare_Blockread                       0x08003f60   Section        0  mifare.o(i.Mifare_Blockread)
    i.Mifare_Blockwrite                      0x08003fc2   Section        0  mifare.o(i.Mifare_Blockwrite)
    i.ModifyReg                              0x0800405a   Section        0  fm175xx.o(i.ModifyReg)
    i.ModifyReg_Ext                          0x0800408c   Section        0  fm175xx.o(i.ModifyReg_Ext)
    i.NFC_Card_ID_Pro                        0x080040c0   Section        0  control_task.o(i.NFC_Card_ID_Pro)
    NFC_Card_ID_Pro                          0x080040c1   Thumb Code   124  control_task.o(i.NFC_Card_ID_Pro)
    i.NTC_GET_Temperature                    0x08004148   Section        0  handletemperature.o(i.NTC_GET_Temperature)
    NTC_GET_Temperature                      0x08004149   Thumb Code    62  handletemperature.o(i.NTC_GET_Temperature)
    i.NVIC_Configuration                     0x08004190   Section        0  system_config.o(i.NVIC_Configuration)
    i.NVIC_Init                              0x080041c4   Section        0  stm32f0xx_misc.o(i.NVIC_Init)
    i.Normal_Tasks_Process                   0x08004234   Section        0  control_task.o(i.Normal_Tasks_Process)
    Normal_Tasks_Process                     0x08004235   Thumb Code    44  control_task.o(i.Normal_Tasks_Process)
    i.Normal_Tasks_Remarks                   0x08004264   Section        0  control_task.o(i.Normal_Tasks_Remarks)
    i.ParseFrame                             0x080042b0   Section        0  parseframe.o(i.ParseFrame)
    i.Peripherals_Clock_Init                 0x0800447c   Section        0  system_config.o(i.Peripherals_Clock_Init)
    i.PowerON_RGB                            0x0800451c   Section        0  led_others.o(i.PowerON_RGB)
    i.PushMiniFrame                          0x0800458c   Section        0  parseframe.o(i.PushMiniFrame)
    i.Query_Send_Data_Pro                    0x080045b0   Section        0  stateupdate.o(i.Query_Send_Data_Pro)
    i.RCC_ADCCLKConfig                       0x08004640   Section        0  stm32f0xx_rcc.o(i.RCC_ADCCLKConfig)
    i.RCC_AHBPeriphClockCmd                  0x08004678   Section        0  stm32f0xx_rcc.o(i.RCC_AHBPeriphClockCmd)
    i.RCC_APB1PeriphClockCmd                 0x08004698   Section        0  stm32f0xx_rcc.o(i.RCC_APB1PeriphClockCmd)
    i.RCC_APB1PeriphResetCmd                 0x080046b8   Section        0  stm32f0xx_rcc.o(i.RCC_APB1PeriphResetCmd)
    i.RCC_APB2PeriphClockCmd                 0x080046d8   Section        0  stm32f0xx_rcc.o(i.RCC_APB2PeriphClockCmd)
    i.RCC_APB2PeriphResetCmd                 0x080046f8   Section        0  stm32f0xx_rcc.o(i.RCC_APB2PeriphResetCmd)
    i.RCC_GetClocksFreq                      0x08004718   Section        0  stm32f0xx_rcc.o(i.RCC_GetClocksFreq)
    i.RGB_Bit_Set                            0x08004908   Section        0  led_others.o(i.RGB_Bit_Set)
    i.RGB_Buff_Init                          0x08004a04   Section        0  led_others.o(i.RGB_Buff_Init)
    i.RGB_Time_Init                          0x08004a3c   Section        0  led_others.o(i.RGB_Time_Init)
    i.ReadUniqueID                           0x08004b3c   Section        0  system_config.o(i.ReadUniqueID)
    i.ReaderA_AntiColl                       0x08004b84   Section        0  reader_api.o(i.ReaderA_AntiColl)
    i.ReaderA_CardActivate                   0x08004c44   Section        0  reader_api.o(i.ReaderA_CardActivate)
    i.ReaderA_Select                         0x08004cc4   Section        0  reader_api.o(i.ReaderA_Select)
    i.ReaderA_Wakeup                         0x08004d70   Section        0  reader_api.o(i.ReaderA_Wakeup)
    i.SPI1_Configuration                     0x08004dd0   Section        0  spi.o(i.SPI1_Configuration)
    i.SPI_Cmd                                0x08004ea0   Section        0  stm32f0xx_spi.o(i.SPI_Cmd)
    i.SPI_I2S_ClearFlag                      0x08004ebc   Section        0  stm32f0xx_spi.o(i.SPI_I2S_ClearFlag)
    i.SPI_I2S_GetFlagStatus                  0x08004ec2   Section        0  stm32f0xx_spi.o(i.SPI_I2S_GetFlagStatus)
    i.SPI_Init                               0x08004ed8   Section        0  stm32f0xx_spi.o(i.SPI_Init)
    i.SPI_Read_FIFO                          0x08004f30   Section        0  fm175xx.o(i.SPI_Read_FIFO)
    i.SPI_ReceiveData8                       0x08004fc4   Section        0  stm32f0xx_spi.o(i.SPI_ReceiveData8)
    i.SPI_RxFIFOThresholdConfig              0x08004fd0   Section        0  stm32f0xx_spi.o(i.SPI_RxFIFOThresholdConfig)
    i.SPI_SendData8                          0x08004fe4   Section        0  stm32f0xx_spi.o(i.SPI_SendData8)
    i.SPI_Write_FIFO                         0x08004ff0   Section        0  fm175xx.o(i.SPI_Write_FIFO)
    i.SVC_Handler                            0x08005060   Section        0  port.o(i.SVC_Handler)
    i.SYSCFG_EXTILineConfig                  0x08005064   Section        0  stm32f0xx_syscfg.o(i.SYSCFG_EXTILineConfig)
    i.SYSCFG_MemoryRemapConfig               0x080050a4   Section        0  stm32f0xx_syscfg.o(i.SYSCFG_MemoryRemapConfig)
    i.SaveFDatamap                           0x080050c0   Section        0  system_config.o(i.SaveFDatamap)
    i.SetErrorByte                           0x080051c4   Section        0  system_config.o(i.SetErrorByte)
    i.SetReceiveCRC                          0x080051e0   Section        0  reader_api.o(i.SetReceiveCRC)
    i.SetReg                                 0x08005200   Section        0  fm175xx.o(i.SetReg)
    i.SetReg_Ext                             0x08005270   Section        0  fm175xx.o(i.SetReg_Ext)
    i.SetRf                                  0x08005290   Section        0  reader_api.o(i.SetRf)
    i.SetSendCRC                             0x080052ec   Section        0  reader_api.o(i.SetSendCRC)
    i.SetTimeOut                             0x0800530c   Section        0  reader_api.o(i.SetTimeOut)
    i.SysTick_CLKSourceConfig                0x08005378   Section        0  stm32f0xx_misc.o(i.SysTick_CLKSourceConfig)
    i.SysTick_Handler                        0x0800539c   Section        0  port.o(i.SysTick_Handler)
    i.SystemCoreClockConfigure               0x080053c0   Section        0  system_config.o(i.SystemCoreClockConfigure)
    i.SystemCoreClockUpdate                  0x08005498   Section        0  system_stm32f0xx.o(i.SystemCoreClockUpdate)
    i.SystemInit                             0x08005548   Section        0  system_stm32f0xx.o(i.SystemInit)
    i.TIM2_IRQHandler                        0x080055bc   Section        0  universal_init.o(i.TIM2_IRQHandler)
    i.TIM_ARRPreloadConfig                   0x080055d8   Section        0  stm32f0xx_tim.o(i.TIM_ARRPreloadConfig)
    i.TIM_ClearFlag                          0x080055f4   Section        0  stm32f0xx_tim.o(i.TIM_ClearFlag)
    i.TIM_ClearITPendingBit                  0x080055fa   Section        0  stm32f0xx_tim.o(i.TIM_ClearITPendingBit)
    i.TIM_Cmd                                0x08005600   Section        0  stm32f0xx_tim.o(i.TIM_Cmd)
    i.TIM_CtrlPWMOutputs                     0x0800561c   Section        0  stm32f0xx_tim.o(i.TIM_CtrlPWMOutputs)
    i.TIM_DMACmd                             0x0800563e   Section        0  stm32f0xx_tim.o(i.TIM_DMACmd)
    i.TIM_DeInit                             0x08005654   Section        0  stm32f0xx_tim.o(i.TIM_DeInit)
    i.TIM_GetITStatus                        0x08005758   Section        0  stm32f0xx_tim.o(i.TIM_GetITStatus)
    i.TIM_ITConfig                           0x0800577e   Section        0  stm32f0xx_tim.o(i.TIM_ITConfig)
    i.TIM_OC1Init                            0x08005794   Section        0  stm32f0xx_tim.o(i.TIM_OC1Init)
    i.TIM_OC1PreloadConfig                   0x08005828   Section        0  stm32f0xx_tim.o(i.TIM_OC1PreloadConfig)
    i.TIM_OC2Init                            0x08005840   Section        0  stm32f0xx_tim.o(i.TIM_OC2Init)
    i.TIM_OC2PreloadConfig                   0x080058ec   Section        0  stm32f0xx_tim.o(i.TIM_OC2PreloadConfig)
    i.TIM_OC3Init                            0x08005904   Section        0  stm32f0xx_tim.o(i.TIM_OC3Init)
    i.TIM_OC3PreloadConfig                   0x0800599c   Section        0  stm32f0xx_tim.o(i.TIM_OC3PreloadConfig)
    i.TIM_OCStructInit                       0x080059b4   Section        0  stm32f0xx_tim.o(i.TIM_OCStructInit)
    i.TIM_SetCompare1                        0x080059c8   Section        0  stm32f0xx_tim.o(i.TIM_SetCompare1)
    i.TIM_SetCompare2                        0x080059cc   Section        0  stm32f0xx_tim.o(i.TIM_SetCompare2)
    i.TIM_SetCompare3                        0x080059d0   Section        0  stm32f0xx_tim.o(i.TIM_SetCompare3)
    i.TIM_TimeBaseInit                       0x080059d4   Section        0  stm32f0xx_tim.o(i.TIM_TimeBaseInit)
    i.TIM_TimeBaseStructInit                 0x08005a50   Section        0  stm32f0xx_tim.o(i.TIM_TimeBaseStructInit)
    i.TYPE_A_EVENT                           0x08005a64   Section        0  reader_api.o(i.TYPE_A_EVENT)
    i.Timer2Init                             0x08005b98   Section        0  universal_init.o(i.Timer2Init)
    i.UART3_CheckReceive                     0x08005bd0   Section        0  uart_3.o(i.UART3_CheckReceive)
    i.UART3_CheckSend                        0x08005c5c   Section        0  uart_3.o(i.UART3_CheckSend)
    i.UART3_DMAConfiguration                 0x08005cbc   Section        0  uart_3.o(i.UART3_DMAConfiguration)
    i.UART3_DmaSend                          0x08005d90   Section        0  uart_3.o(i.UART3_DmaSend)
    UART3_DmaSend                            0x08005d91   Thumb Code    38  uart_3.o(i.UART3_DmaSend)
    i.UART3_InitVariables                    0x08005dbc   Section        0  uart_3.o(i.UART3_InitVariables)
    i.UART3_Int                              0x08005dc8   Section        0  uart_3.o(i.UART3_Int)
    i.UART3_ParseData                        0x08005e58   Section        0  uart_3.o(i.UART3_ParseData)
    i.UART3_PushFrame                        0x08005f70   Section        0  uart_3.o(i.UART3_PushFrame)
    i.UART3_SetPinToRx                       0x08006014   Section        0  uart_3.o(i.UART3_SetPinToRx)
    UART3_SetPinToRx                         0x08006015   Thumb Code    56  uart_3.o(i.UART3_SetPinToRx)
    i.UART3_SetPinToTx                       0x08006054   Section        0  uart_3.o(i.UART3_SetPinToTx)
    UART3_SetPinToTx                         0x08006055   Thumb Code    56  uart_3.o(i.UART3_SetPinToTx)
    i.USART_Cmd                              0x08006094   Section        0  stm32f0xx_usart.o(i.USART_Cmd)
    i.USART_DMACmd                           0x080060ac   Section        0  stm32f0xx_usart.o(i.USART_DMACmd)
    i.USART_DeInit                           0x080060c0   Section        0  stm32f0xx_usart.o(i.USART_DeInit)
    i.USART_HalfDuplexCmd                    0x0800613c   Section        0  stm32f0xx_usart.o(i.USART_HalfDuplexCmd)
    i.USART_Init                             0x08006154   Section        0  stm32f0xx_usart.o(i.USART_Init)
    i.Variables_Init                         0x0800623c   Section        0  system_config.o(i.Variables_Init)
    i.Wireless_Power_Ctr_Handler             0x080062a8   Section        0  control_task.o(i.Wireless_Power_Ctr_Handler)
    i.__ARM_common_switch8                   0x0800641c   Section        0  iic.o(i.__ARM_common_switch8)
    i.__scatterload_copy                     0x08006438   Section       14  handlers.o(i.__scatterload_copy)
    i.__scatterload_null                     0x08006446   Section        2  handlers.o(i.__scatterload_null)
    i.__scatterload_zeroinit                 0x08006448   Section       14  handlers.o(i.__scatterload_zeroinit)
    i.check_NFC_key                          0x08006458   Section        0  reader_api.o(i.check_NFC_key)
    i.delay_init                             0x08006484   Section        0  system_config.o(i.delay_init)
    i.delay_us                               0x080064d8   Section        0  system_config.o(i.delay_us)
    i.eTaskConfirmSleepModeStatus            0x08006520   Section        0  tasks.o(i.eTaskConfirmSleepModeStatus)
    i.gpioGetInput                           0x08006560   Section        0  gpio.o(i.gpioGetInput)
    i.gpioInitialize                         0x080065b0   Section        0  gpio.o(i.gpioInitialize)
    i.gpioSetOutput                          0x080065d8   Section        0  gpio.o(i.gpioSetOutput)
    i.mDelay                                 0x08006614   Section        0  fm175xx.o(i.mDelay)
    i.main                                   0x0800664c   Section        0  main.o(i.main)
    i.powerCtrl                              0x08006690   Section        0  stateupdate.o(i.powerCtrl)
    powerCtrl                                0x08006691   Thumb Code    60  stateupdate.o(i.powerCtrl)
    i.prvAddCurrentTaskToDelayedList         0x080066d0   Section        0  tasks.o(i.prvAddCurrentTaskToDelayedList)
    prvAddCurrentTaskToDelayedList           0x080066d1   Thumb Code   110  tasks.o(i.prvAddCurrentTaskToDelayedList)
    i.prvAddNewTaskToReadyList               0x08006758   Section        0  tasks.o(i.prvAddNewTaskToReadyList)
    prvAddNewTaskToReadyList                 0x08006759   Thumb Code   146  tasks.o(i.prvAddNewTaskToReadyList)
    i.prvCheckForValidListAndQueue           0x08006804   Section        0  timers.o(i.prvCheckForValidListAndQueue)
    prvCheckForValidListAndQueue             0x08006805   Thumb Code    58  timers.o(i.prvCheckForValidListAndQueue)
    i.prvCheckTasksWaitingTermination        0x08006854   Section        0  tasks.o(i.prvCheckTasksWaitingTermination)
    prvCheckTasksWaitingTermination          0x08006855   Thumb Code    60  tasks.o(i.prvCheckTasksWaitingTermination)
    i.prvCopyDataFromQueue                   0x0800689c   Section        0  queue.o(i.prvCopyDataFromQueue)
    prvCopyDataFromQueue                     0x0800689d   Thumb Code    44  queue.o(i.prvCopyDataFromQueue)
    i.prvCopyDataToQueue                     0x080068c8   Section        0  queue.o(i.prvCopyDataToQueue)
    prvCopyDataToQueue                       0x080068c9   Thumb Code   128  queue.o(i.prvCopyDataToQueue)
    i.prvDeleteTCB                           0x08006948   Section        0  tasks.o(i.prvDeleteTCB)
    prvDeleteTCB                             0x08006949   Thumb Code    18  tasks.o(i.prvDeleteTCB)
    i.prvGetExpectedIdleTime                 0x0800695c   Section        0  tasks.o(i.prvGetExpectedIdleTime)
    prvGetExpectedIdleTime                   0x0800695d   Thumb Code    58  tasks.o(i.prvGetExpectedIdleTime)
    i.prvGetNextExpireTime                   0x080069ac   Section        0  timers.o(i.prvGetNextExpireTime)
    prvGetNextExpireTime                     0x080069ad   Thumb Code    40  timers.o(i.prvGetNextExpireTime)
    i.prvHeapInit                            0x080069d8   Section        0  heap_4.o(i.prvHeapInit)
    prvHeapInit                              0x080069d9   Thumb Code   100  heap_4.o(i.prvHeapInit)
    i.prvIdleTask                            0x08006a54   Section        0  tasks.o(i.prvIdleTask)
    prvIdleTask                              0x08006a55   Thumb Code    70  tasks.o(i.prvIdleTask)
    i.prvInitialiseNewQueue                  0x08006aa4   Section        0  queue.o(i.prvInitialiseNewQueue)
    prvInitialiseNewQueue                    0x08006aa5   Thumb Code    48  queue.o(i.prvInitialiseNewQueue)
    i.prvInitialiseNewTask                   0x08006ad4   Section        0  tasks.o(i.prvInitialiseNewTask)
    prvInitialiseNewTask                     0x08006ad5   Thumb Code   192  tasks.o(i.prvInitialiseNewTask)
    i.prvInitialiseTaskLists                 0x08006b94   Section        0  tasks.o(i.prvInitialiseTaskLists)
    prvInitialiseTaskLists                   0x08006b95   Thumb Code    68  tasks.o(i.prvInitialiseTaskLists)
    i.prvInsertBlockIntoFreeList             0x08006bf8   Section        0  heap_4.o(i.prvInsertBlockIntoFreeList)
    prvInsertBlockIntoFreeList               0x08006bf9   Thumb Code    96  heap_4.o(i.prvInsertBlockIntoFreeList)
    i.prvInsertTimerInActiveList             0x08006c60   Section        0  timers.o(i.prvInsertTimerInActiveList)
    prvInsertTimerInActiveList               0x08006c61   Thumb Code    76  timers.o(i.prvInsertTimerInActiveList)
    i.prvIsQueueEmpty                        0x08006cb4   Section        0  queue.o(i.prvIsQueueEmpty)
    prvIsQueueEmpty                          0x08006cb5   Thumb Code    28  queue.o(i.prvIsQueueEmpty)
    i.prvIsQueueFull                         0x08006cd0   Section        0  queue.o(i.prvIsQueueFull)
    prvIsQueueFull                           0x08006cd1   Thumb Code    30  queue.o(i.prvIsQueueFull)
    i.prvNotifyQueueSetContainer             0x08006cee   Section        0  queue.o(i.prvNotifyQueueSetContainer)
    prvNotifyQueueSetContainer               0x08006cef   Thumb Code   118  queue.o(i.prvNotifyQueueSetContainer)
    i.prvProcessExpiredTimer                 0x08006d64   Section        0  timers.o(i.prvProcessExpiredTimer)
    prvProcessExpiredTimer                   0x08006d65   Thumb Code   100  timers.o(i.prvProcessExpiredTimer)
    i.prvProcessReceivedCommands             0x08006dcc   Section        0  timers.o(i.prvProcessReceivedCommands)
    prvProcessReceivedCommands               0x08006dcd   Thumb Code   318  timers.o(i.prvProcessReceivedCommands)
    i.prvProcessTimerOrBlockTask             0x08006f10   Section        0  timers.o(i.prvProcessTimerOrBlockTask)
    prvProcessTimerOrBlockTask               0x08006f11   Thumb Code   100  timers.o(i.prvProcessTimerOrBlockTask)
    i.prvResetNextTaskUnblockTime            0x08006f7c   Section        0  tasks.o(i.prvResetNextTaskUnblockTime)
    prvResetNextTaskUnblockTime              0x08006f7d   Thumb Code    46  tasks.o(i.prvResetNextTaskUnblockTime)
    i.prvSampleTimeNow                       0x08006fb4   Section        0  timers.o(i.prvSampleTimeNow)
    prvSampleTimeNow                         0x08006fb5   Thumb Code    40  timers.o(i.prvSampleTimeNow)
    i.prvSwitchTimerLists                    0x08006fe0   Section        0  timers.o(i.prvSwitchTimerLists)
    prvSwitchTimerLists                      0x08006fe1   Thumb Code   140  timers.o(i.prvSwitchTimerLists)
    i.prvTaskExitError                       0x08007074   Section        0  port.o(i.prvTaskExitError)
    prvTaskExitError                         0x08007075   Thumb Code    32  port.o(i.prvTaskExitError)
    i.prvTimerTask                           0x08007098   Section        0  timers.o(i.prvTimerTask)
    prvTimerTask                             0x08007099   Thumb Code    26  timers.o(i.prvTimerTask)
    i.prvUnlockQueue                         0x080070b2   Section        0  queue.o(i.prvUnlockQueue)
    prvUnlockQueue                           0x080070b3   Thumb Code   164  queue.o(i.prvUnlockQueue)
    i.pvPortMalloc                           0x08007158   Section        0  heap_4.o(i.pvPortMalloc)
    i.pxPortInitialiseStack                  0x08007284   Section        0  port.o(i.pxPortInitialiseStack)
    i.start_task                             0x080072a4   Section        0  main.o(i.start_task)
    i.turnLightProcess                       0x08007348   Section        0  turnlightprocess.o(i.turnLightProcess)
    i.uDelay                                 0x0800736c   Section        0  reader_api.o(i.uDelay)
    i.uxListRemove                           0x08007382   Section        0  list.o(i.uxListRemove)
    i.vListInitialise                        0x080073aa   Section        0  list.o(i.vListInitialise)
    i.vListInitialiseItem                    0x080073c4   Section        0  list.o(i.vListInitialiseItem)
    i.vListInsert                            0x080073ca   Section        0  list.o(i.vListInsert)
    i.vListInsertEnd                         0x08007400   Section        0  list.o(i.vListInsertEnd)
    i.vPortEnterCritical                     0x08007418   Section        0  port.o(i.vPortEnterCritical)
    i.vPortExitCritical                      0x08007434   Section        0  port.o(i.vPortExitCritical)
    i.vPortFree                              0x0800745c   Section        0  heap_4.o(i.vPortFree)
    i.vPortSetupTimerInterrupt               0x080074ec   Section        0  port.o(i.vPortSetupTimerInterrupt)
    i.vPortSuppressTicksAndSleep             0x0800754c   Section        0  port.o(i.vPortSuppressTicksAndSleep)
    i.vPortYield                             0x08007690   Section        0  port.o(i.vPortYield)
    i.vQueueWaitForMessageRestricted         0x080076a8   Section        0  queue.o(i.vQueueWaitForMessageRestricted)
    i.vTaskDelay                             0x080076f4   Section        0  tasks.o(i.vTaskDelay)
    i.vTaskDelete                            0x08007738   Section        0  tasks.o(i.vTaskDelete)
    i.vTaskInternalSetTimeOutState           0x080077ec   Section        0  tasks.o(i.vTaskInternalSetTimeOutState)
    i.vTaskMissedYield                       0x08007804   Section        0  tasks.o(i.vTaskMissedYield)
    i.vTaskPlaceOnEventList                  0x08007810   Section        0  tasks.o(i.vTaskPlaceOnEventList)
    i.vTaskPlaceOnEventListRestricted        0x0800783c   Section        0  tasks.o(i.vTaskPlaceOnEventListRestricted)
    i.vTaskStartScheduler                    0x08007870   Section        0  tasks.o(i.vTaskStartScheduler)
    i.vTaskStepTick                          0x080078e8   Section        0  tasks.o(i.vTaskStepTick)
    i.vTaskSuspendAll                        0x0800791c   Section        0  tasks.o(i.vTaskSuspendAll)
    i.vTaskSwitchContext                     0x0800792c   Section        0  tasks.o(i.vTaskSwitchContext)
    i.xPortStartScheduler                    0x080079ac   Section        0  port.o(i.xPortStartScheduler)
    i.xQueueGenericCreate                    0x080079e4   Section        0  queue.o(i.xQueueGenericCreate)
    i.xQueueGenericReset                     0x08007a30   Section        0  queue.o(i.xQueueGenericReset)
    i.xQueueGenericSend                      0x08007ab2   Section        0  queue.o(i.xQueueGenericSend)
    i.xQueueGenericSendFromISR               0x08007c30   Section        0  queue.o(i.xQueueGenericSendFromISR)
    i.xQueueReceive                          0x08007d14   Section        0  queue.o(i.xQueueReceive)
    i.xTaskCheckForTimeOut                   0x08007e4c   Section        0  tasks.o(i.xTaskCheckForTimeOut)
    i.xTaskCreate                            0x08007edc   Section        0  tasks.o(i.xTaskCreate)
    i.xTaskGetSchedulerState                 0x08007f38   Section        0  tasks.o(i.xTaskGetSchedulerState)
    i.xTaskGetTickCount                      0x08007f5c   Section        0  tasks.o(i.xTaskGetTickCount)
    i.xTaskIncrementTick                     0x08007f68   Section        0  tasks.o(i.xTaskIncrementTick)
    i.xTaskPriorityDisinherit                0x080080a4   Section        0  tasks.o(i.xTaskPriorityDisinherit)
    i.xTaskRemoveFromEventList               0x0800812c   Section        0  tasks.o(i.xTaskRemoveFromEventList)
    i.xTaskResumeAll                         0x080081b8   Section        0  tasks.o(i.xTaskResumeAll)
    i.xTimerCreateTimerTask                  0x080082a8   Section        0  timers.o(i.xTimerCreateTimerTask)
    i.xTimerGenericCommand                   0x080082f0   Section        0  timers.o(i.xTimerGenericCommand)
    .constdata                               0x08008364   Section       31  reader_api.o(.constdata)
    LPCD_GAIN                                0x08008364   Data          11  reader_api.o(.constdata)
    LPCD_P_DRIVER                            0x0800836f   Data           7  reader_api.o(.constdata)
    LPCD_N_DRIVER                            0x08008376   Data           7  reader_api.o(.constdata)
    RF_CMD_ANTICOL                           0x0800837d   Data           3  reader_api.o(.constdata)
    RF_CMD_SELECT                            0x08008380   Data           3  reader_api.o(.constdata)
    .data                                    0x200000c0   Section        8  stm32f0xx_flash.o(.data)
    .data                                    0x200000c8   Section       16  stm32f0xx_rcc.o(.data)
    APBAHBPrescTable                         0x200000c8   Data          16  stm32f0xx_rcc.o(.data)
    .data                                    0x200000d8   Section       20  system_stm32f0xx.o(.data)
    .data                                    0x200000ec   Section       16  main.o(.data)
    .data                                    0x200000fc   Section        5  system_config.o(.data)
    fac_us                                   0x200000fc   Data           1  system_config.o(.data)
    fac_ms                                   0x200000fe   Data           2  system_config.o(.data)
    First_in_flage                           0x20000100   Data           1  system_config.o(.data)
    .data                                    0x20000104   Section      224  gpio.o(.data)
    gpioPin                                  0x20000104   Data         224  gpio.o(.data)
    .data                                    0x200001e4   Section        5  user_com_task.o(.data)
    s_reset_delay                            0x200001e8   Data           1  user_com_task.o(.data)
    .data                                    0x200001ec   Section       20  uart_3.o(.data)
    s_bFrameHead1                            0x200001f8   Data           1  uart_3.o(.data)
    s_bBeginFrame                            0x200001f9   Data           1  uart_3.o(.data)
    s_rxPos                                  0x200001fa   Data           2  uart_3.o(.data)
    s_rxLen                                  0x200001fc   Data           2  uart_3.o(.data)
    s_csum                                   0x200001fe   Data           2  uart_3.o(.data)
    .data                                    0x20000200   Section        5  dis_task.o(.data)
    leftBroknCnt                             0x20000200   Data           1  dis_task.o(.data)
    rightBroknCnt                            0x20000201   Data           1  dis_task.o(.data)
    s_timer_cn                               0x20000202   Data           1  dis_task.o(.data)
    flash_flage                              0x20000203   Data           1  dis_task.o(.data)
    dis_init                                 0x20000204   Data           1  dis_task.o(.data)
    .data                                    0x20000206   Section       11  led_others.o(.data)
    RGB_brightness                           0x20000206   Data           1  led_others.o(.data)
    RGB_pare                                 0x20000207   Data           3  led_others.o(.data)
    i                                        0x2000020a   Data           1  led_others.o(.data)
    j                                        0x2000020b   Data           1  led_others.o(.data)
    s_cnt                                    0x2000020c   Data           2  led_others.o(.data)
    brightness                               0x2000020e   Data           1  led_others.o(.data)
    s_dir                                    0x2000020f   Data           1  led_others.o(.data)
    s_cnt                                    0x20000210   Data           1  led_others.o(.data)
    .data                                    0x20000212   Section       10  ambient_light_app.o(.data)
    s_period_cnt                             0x20000212   Data           2  ambient_light_app.o(.data)
    delay_cnt                                0x20000214   Data           2  ambient_light_app.o(.data)
    s_period_cnt                             0x20000216   Data           2  ambient_light_app.o(.data)
    delay_cnt                                0x20000218   Data           2  ambient_light_app.o(.data)
    s_color                                  0x2000021a   Data           2  ambient_light_app.o(.data)
    .data                                    0x2000021c   Section        7  iic.o(.data)
    timeout                                  0x2000021c   Data           1  iic.o(.data)
    s_uCount                                 0x2000021d   Data           1  iic.o(.data)
    s_uTemp                                  0x2000021e   Data           1  iic.o(.data)
    s_uCount                                 0x2000021f   Data           1  iic.o(.data)
    s_uReceive                               0x20000220   Data           1  iic.o(.data)
    s_uData_num                              0x20000221   Data           1  iic.o(.data)
    s_uData_num                              0x20000222   Data           1  iic.o(.data)
    .data                                    0x20000224   Section       98  control_task.o(.data)
    TaskComps                                0x20000224   Data          80  control_task.o(.data)
    m_ErrCnt                                 0x20000274   Data           2  control_task.o(.data)
    Pulse_num                                0x20000276   Data           1  control_task.o(.data)
    Time_cnt                                 0x20000278   Data           2  control_task.o(.data)
    Time_cnt1                                0x2000027a   Data           2  control_task.o(.data)
    Last_input_state                         0x2000027c   Data           1  control_task.o(.data)
    Wireless_Charge_Vol_TSD                  0x2000027d   Data           1  control_task.o(.data)
    Wireless_Charge_Vol_Offset               0x2000027e   Data           1  control_task.o(.data)
    s_cnt                                    0x20000280   Data           2  control_task.o(.data)
    s_oldBeepCmd                             0x20000282   Data           1  control_task.o(.data)
    s_beepRepeat                             0x20000283   Data           1  control_task.o(.data)
    s_beepOnCnt                              0x20000284   Data           1  control_task.o(.data)
    s_beepOffCnt                             0x20000285   Data           1  control_task.o(.data)
    .data                                    0x20000288   Section       28  iap.o(.data)
    .data                                    0x200002a4   Section      108  handletemperature.o(.data)
    .data                                    0x20000310   Section        4  stateupdate.o(.data)
    send100MsCnt                             0x20000310   Data           1  stateupdate.o(.data)
    s_cntIAP                                 0x20000312   Data           2  stateupdate.o(.data)
    .data                                    0x20000314   Section      227  mifare.o(.data)
    .data                                    0x200003f8   Section       20  reader_api.o(.data)
    s_NFC_Flage                              0x20000407   Data           1  reader_api.o(.data)
    s_Check                                  0x20000408   Data           1  reader_api.o(.data)
    s_Count                                  0x2000040a   Data           2  reader_api.o(.data)
    .data                                    0x2000040c   Section       12  variable.o(.data)
    .data                                    0x20000418   Section       32  heap_4.o(.data)
    xStart                                   0x20000418   Data           8  heap_4.o(.data)
    pxEnd                                    0x20000420   Data           4  heap_4.o(.data)
    xFreeBytesRemaining                      0x20000424   Data           4  heap_4.o(.data)
    xMinimumEverFreeBytesRemaining           0x20000428   Data           4  heap_4.o(.data)
    xNumberOfSuccessfulAllocations           0x2000042c   Data           4  heap_4.o(.data)
    xNumberOfSuccessfulFrees                 0x20000430   Data           4  heap_4.o(.data)
    xBlockAllocatedBit                       0x20000434   Data           4  heap_4.o(.data)
    .data                                    0x20000438   Section       16  port.o(.data)
    uxCriticalNesting                        0x20000438   Data           4  port.o(.data)
    ulTimerCountsForOneTick                  0x2000043c   Data           4  port.o(.data)
    xMaximumPossibleSuppressedTicks          0x20000440   Data           4  port.o(.data)
    ulStoppedTimerCompensation               0x20000444   Data           4  port.o(.data)
    .data                                    0x20000448   Section       60  tasks.o(.data)
    pxDelayedTaskList                        0x2000044c   Data           4  tasks.o(.data)
    pxOverflowDelayedTaskList                0x20000450   Data           4  tasks.o(.data)
    uxDeletedTasksWaitingCleanUp             0x20000454   Data           4  tasks.o(.data)
    uxCurrentNumberOfTasks                   0x20000458   Data           4  tasks.o(.data)
    xTickCount                               0x2000045c   Data           4  tasks.o(.data)
    uxTopReadyPriority                       0x20000460   Data           4  tasks.o(.data)
    xSchedulerRunning                        0x20000464   Data           4  tasks.o(.data)
    xPendedTicks                             0x20000468   Data           4  tasks.o(.data)
    xYieldPending                            0x2000046c   Data           4  tasks.o(.data)
    xNumOfOverflows                          0x20000470   Data           4  tasks.o(.data)
    uxTaskNumber                             0x20000474   Data           4  tasks.o(.data)
    xNextTaskUnblockTime                     0x20000478   Data           4  tasks.o(.data)
    xIdleTaskHandle                          0x2000047c   Data           4  tasks.o(.data)
    uxSchedulerSuspended                     0x20000480   Data           4  tasks.o(.data)
    .data                                    0x20000484   Section       20  timers.o(.data)
    pxCurrentTimerList                       0x20000484   Data           4  timers.o(.data)
    pxOverflowTimerList                      0x20000488   Data           4  timers.o(.data)
    xTimerQueue                              0x2000048c   Data           4  timers.o(.data)
    xTimerTaskHandle                         0x20000490   Data           4  timers.o(.data)
    xLastTime                                0x20000494   Data           4  timers.o(.data)
    .bss                                     0x20000498   Section       96  universal_init.o(.bss)
    .bss                                     0x200004f8   Section      950  uart_3.o(.bss)
    Uart3SendDMAInitStructure                0x200007ec   Data          44  uart_3.o(.bss)
    s_RXBuf                                  0x20000818   Data         150  uart_3.o(.bss)
    .bss                                     0x200008ae   Section       88  led_others.o(.bss)
    m_LED_DMABuff                            0x200008ae   Data          88  led_others.o(.bss)
    .bss                                     0x20000908   Section       40  ambient_light_app.o(.bss)
    .bss                                     0x20000930   Section       24  iic.o(.bss)
    .bss                                     0x20000948   Section      252  iap.o(.bss)
    .bss                                     0x20000a44   Section       32  mifare.o(.bss)
    .bss                                     0x20000a64   Section       86  reader_api.o(.bss)
    .bss                                     0x20000aba   Section      166  variable.o(.bss)
    .bss                                     0x20000b60   Section     5120  heap_4.o(.bss)
    ucHeap                                   0x20000b60   Data        5120  heap_4.o(.bss)
    .bss                                     0x20001f60   Section      300  tasks.o(.bss)
    pxReadyTasksLists                        0x20001f60   Data         200  tasks.o(.bss)
    xDelayedTaskList1                        0x20002028   Data          20  tasks.o(.bss)
    xDelayedTaskList2                        0x2000203c   Data          20  tasks.o(.bss)
    xPendingReadyList                        0x20002050   Data          20  tasks.o(.bss)
    xTasksWaitingTermination                 0x20002064   Data          20  tasks.o(.bss)
    xSuspendedTaskList                       0x20002078   Data          20  tasks.o(.bss)
    .bss                                     0x2000208c   Section       40  timers.o(.bss)
    xActiveTimerList1                        0x2000208c   Data          20  timers.o(.bss)
    xActiveTimerList2                        0x200020a0   Data          20  timers.o(.bss)
    STACK                                    0x200020b8   Section     3072  startup_stm32f072.o(STACK)

    Global Symbols

    Symbol Name                              Value     Ov Type        Size  Object(Section)

    BuildAttributes$$THM_ISAv3M$S$PE$A:L22$X:L11$S22$IEEE1$IW$USESV6$~STKCKD$USESV7$~SHL$OSPACE$EBA8$MICROLIB$REQ8$PRES8$EABIv2 0x00000000   Number         0  anon$$obj.o ABSOLUTE
    __ARM_use_no_argv                        0x00000000   Number         0  main.o ABSOLUTE
    __arm_fini_                               - Undefined Weak Reference
    __cpp_initialize__aeabi_                  - Undefined Weak Reference
    __cxa_finalize                            - Undefined Weak Reference
    _clock_init                               - Undefined Weak Reference
    _microlib_exit                            - Undefined Weak Reference
    __Vectors_Size                           0x000000c0   Number         0  startup_stm32f072.o ABSOLUTE
    __Vectors                                0x08001000   Data           4  startup_stm32f072.o(RESET)
    __Vectors_End                            0x080010c0   Data           0  startup_stm32f072.o(RESET)
    __main                                   0x080010c1   Thumb Code     0  entry.o(.ARM.Collect$$$$00000000)
    _main_stk                                0x080010c1   Thumb Code     0  entry2.o(.ARM.Collect$$$$00000001)
    _main_scatterload                        0x080010c5   Thumb Code     0  entry5.o(.ARM.Collect$$$$00000004)
    __main_after_scatterload                 0x080010c9   Thumb Code     0  entry5.o(.ARM.Collect$$$$00000004)
    _main_clock                              0x080010c9   Thumb Code     0  entry7b.o(.ARM.Collect$$$$00000008)
    _main_cpp_init                           0x080010c9   Thumb Code     0  entry8b.o(.ARM.Collect$$$$0000000A)
    _main_init                               0x080010c9   Thumb Code     0  entry9a.o(.ARM.Collect$$$$0000000B)
    __rt_lib_shutdown_fini                   0x080010d1   Thumb Code     0  entry12b.o(.ARM.Collect$$$$0000000E)
    __rt_final_cpp                           0x080010d5   Thumb Code     0  entry10a.o(.ARM.Collect$$$$0000000F)
    __rt_final_exit                          0x080010d5   Thumb Code     0  entry11a.o(.ARM.Collect$$$$00000011)
    Reset_Handler                            0x080010d9   Thumb Code     8  startup_stm32f072.o(.text)
    NMI_Handler                              0x080010e1   Thumb Code     2  startup_stm32f072.o(.text)
    HardFault_Handler                        0x080010e3   Thumb Code     2  startup_stm32f072.o(.text)
    ADC1_COMP_IRQHandler                     0x080010eb   Thumb Code     0  startup_stm32f072.o(.text)
    CEC_CAN_IRQHandler                       0x080010eb   Thumb Code     0  startup_stm32f072.o(.text)
    DMA1_Channel1_IRQHandler                 0x080010eb   Thumb Code     0  startup_stm32f072.o(.text)
    DMA1_Channel4_5_6_7_IRQHandler           0x080010eb   Thumb Code     0  startup_stm32f072.o(.text)
    EXTI0_1_IRQHandler                       0x080010eb   Thumb Code     0  startup_stm32f072.o(.text)
    EXTI4_15_IRQHandler                      0x080010eb   Thumb Code     0  startup_stm32f072.o(.text)
    FLASH_IRQHandler                         0x080010eb   Thumb Code     0  startup_stm32f072.o(.text)
    I2C1_IRQHandler                          0x080010eb   Thumb Code     0  startup_stm32f072.o(.text)
    I2C2_IRQHandler                          0x080010eb   Thumb Code     0  startup_stm32f072.o(.text)
    PVD_VDDIO2_IRQHandler                    0x080010eb   Thumb Code     0  startup_stm32f072.o(.text)
    RCC_CRS_IRQHandler                       0x080010eb   Thumb Code     0  startup_stm32f072.o(.text)
    RTC_IRQHandler                           0x080010eb   Thumb Code     0  startup_stm32f072.o(.text)
    SPI1_IRQHandler                          0x080010eb   Thumb Code     0  startup_stm32f072.o(.text)
    SPI2_IRQHandler                          0x080010eb   Thumb Code     0  startup_stm32f072.o(.text)
    TIM14_IRQHandler                         0x080010eb   Thumb Code     0  startup_stm32f072.o(.text)
    TIM15_IRQHandler                         0x080010eb   Thumb Code     0  startup_stm32f072.o(.text)
    TIM16_IRQHandler                         0x080010eb   Thumb Code     0  startup_stm32f072.o(.text)
    TIM17_IRQHandler                         0x080010eb   Thumb Code     0  startup_stm32f072.o(.text)
    TIM1_BRK_UP_TRG_COM_IRQHandler           0x080010eb   Thumb Code     0  startup_stm32f072.o(.text)
    TIM1_CC_IRQHandler                       0x080010eb   Thumb Code     0  startup_stm32f072.o(.text)
    TIM3_IRQHandler                          0x080010eb   Thumb Code     0  startup_stm32f072.o(.text)
    TIM6_DAC_IRQHandler                      0x080010eb   Thumb Code     0  startup_stm32f072.o(.text)
    TIM7_IRQHandler                          0x080010eb   Thumb Code     0  startup_stm32f072.o(.text)
    TSC_IRQHandler                           0x080010eb   Thumb Code     0  startup_stm32f072.o(.text)
    USART1_IRQHandler                        0x080010eb   Thumb Code     0  startup_stm32f072.o(.text)
    USART2_IRQHandler                        0x080010eb   Thumb Code     0  startup_stm32f072.o(.text)
    USART3_4_IRQHandler                      0x080010eb   Thumb Code     0  startup_stm32f072.o(.text)
    USB_IRQHandler                           0x080010eb   Thumb Code     0  startup_stm32f072.o(.text)
    WWDG_IRQHandler                          0x080010eb   Thumb Code     0  startup_stm32f072.o(.text)
    ADC_StartOfConversion                    0x080010f5   Thumb Code    10  stm32f0xx_adc.o(i.ADC_StartOfConversion)
    RE_LPCD_CALIBRATION                      0x080010ff   Thumb Code     2  reader_api.o(i.RE_LPCD_CALIBRATION)
    __asm___6_port_c_39a90d8d__prvPortStartFirstTask 0x08001111   Thumb Code    36  port.o(.emb_text)
    ulSetInterruptMaskFromISR                0x08001139   Thumb Code     8  port.o(.emb_text)
    vClearInterruptMaskFromISR               0x08001141   Thumb Code     6  port.o(.emb_text)
    PendSV_Handler                           0x08001147   Thumb Code    62  port.o(.emb_text)
    __aeabi_uidiv                            0x08001189   Thumb Code     0  uidiv.o(.text)
    __aeabi_uidivmod                         0x08001189   Thumb Code    44  uidiv.o(.text)
    __aeabi_idiv                             0x080011b5   Thumb Code     0  idiv.o(.text)
    __aeabi_idivmod                          0x080011b5   Thumb Code    40  idiv.o(.text)
    __aeabi_memcpy                           0x080011dd   Thumb Code    36  memcpya.o(.text)
    __aeabi_memcpy4                          0x080011dd   Thumb Code     0  memcpya.o(.text)
    __aeabi_memcpy8                          0x080011dd   Thumb Code     0  memcpya.o(.text)
    __aeabi_memset                           0x08001201   Thumb Code    14  memseta.o(.text)
    __aeabi_memset4                          0x08001201   Thumb Code     0  memseta.o(.text)
    __aeabi_memset8                          0x08001201   Thumb Code     0  memseta.o(.text)
    __aeabi_memclr                           0x0800120f   Thumb Code     4  memseta.o(.text)
    __aeabi_memclr4                          0x0800120f   Thumb Code     0  memseta.o(.text)
    __aeabi_memclr8                          0x0800120f   Thumb Code     0  memseta.o(.text)
    _memset$wrapper                          0x08001213   Thumb Code    18  memseta.o(.text)
    __scatterload                            0x08001225   Thumb Code    28  init.o(.text)
    __scatterload_rt2                        0x08001225   Thumb Code     0  init.o(.text)
    __decompress                             0x08001249   Thumb Code     0  __dczerorl2.o(.text)
    __decompress1                            0x08001249   Thumb Code    86  __dczerorl2.o(.text)
    ADCDMAConfiguration                      0x080012a1   Thumb Code    74  universal_init.o(i.ADCDMAConfiguration)
    ADC_ChannelConfig                        0x080012f9   Thumb Code    24  stm32f0xx_adc.o(i.ADC_ChannelConfig)
    ADC_Cmd                                  0x08001311   Thumb Code    24  stm32f0xx_adc.o(i.ADC_Cmd)
    ADC_DMACmd                               0x08001329   Thumb Code    24  stm32f0xx_adc.o(i.ADC_DMACmd)
    ADC_DMARequestModeConfig                 0x08001341   Thumb Code    16  stm32f0xx_adc.o(i.ADC_DMARequestModeConfig)
    ADC_DeInit                               0x08001351   Thumb Code    28  stm32f0xx_adc.o(i.ADC_DeInit)
    ADC_GetCalibrationFactor                 0x08001371   Thumb Code    60  stm32f0xx_adc.o(i.ADC_GetCalibrationFactor)
    ADC_GetFlagStatus                        0x080013ad   Thumb Code    48  stm32f0xx_adc.o(i.ADC_GetFlagStatus)
    ADC_Get_ConversionValue                  0x080013dd   Thumb Code    40  universal_init.o(i.ADC_Get_ConversionValue)
    ADC_Init                                 0x08001409   Thumb Code    40  stm32f0xx_adc.o(i.ADC_Init)
    ADC_Int                                  0x08001435   Thumb Code   282  universal_init.o(i.ADC_Int)
    ADC_StructInit                           0x08001561   Thumb Code    16  stm32f0xx_adc.o(i.ADC_StructInit)
    ALL_RGB_OFF                              0x08001571   Thumb Code    14  led_others.o(i.ALL_RGB_OFF)
    Ambient_ClearColor                       0x0800157f   Thumb Code    10  ambient_light_app.o(i.Ambient_ClearColor)
    Ambient_Light_ALL_Pro                    0x08001589   Thumb Code   262  ambient_light_app.o(i.Ambient_Light_ALL_Pro)
    Ambient_Light_Breathe_Pro                0x0800169d   Thumb Code   272  ambient_light_app.o(i.Ambient_Light_Breathe_Pro)
    Ambient_Light_Changliang                 0x080017b5   Thumb Code    94  ambient_light_app.o(i.Ambient_Light_Changliang)
    Ambient_Light_Malloc_Init                0x08001819   Thumb Code    58  ambient_light_app.o(i.Ambient_Light_Malloc_Init)
    Ambient_Light_Set                        0x0800185d   Thumb Code    72  ambient_light_app.o(i.Ambient_Light_Set)
    Ambient_Timer_Cmp_Update                 0x080018ad   Thumb Code    30  ambient_light_app.o(i.Ambient_Timer_Cmp_Update)
    Ambient_Timer_Init                       0x080018d1   Thumb Code   188  universal_init.o(i.Ambient_Timer_Init)
    Ambient_light_Start                      0x08001999   Thumb Code    10  ambient_light_app.o(i.Ambient_light_Start)
    Ambientlight_breath                      0x080019a5   Thumb Code   150  led_others.o(i.Ambientlight_breath)
    Beep_Ctrl_Pro                            0x08001a49   Thumb Code   222  control_task.o(i.Beep_Ctrl_Pro)
    COM1_Task                                0x08001b3d   Thumb Code   102  user_com_task.o(i.COM1_Task)
    CheckSum                                 0x08001ca3   Thumb Code    30  parseframe.o(i.CheckSum)
    Check_IAP_Mode                           0x08001cc1   Thumb Code    56  stateupdate.o(i.Check_IAP_Mode)
    ClearErrorByte                           0x08001d05   Thumb Code    16  system_config.o(i.ClearErrorByte)
    Clear_FIFO                               0x08001d19   Thumb Code    32  fm175xx.o(i.Clear_FIFO)
    Command_Execute                          0x08001d39   Thumb Code   572  reader_api.o(i.Command_Execute)
    Control_Task                             0x08001f75   Thumb Code    18  control_task.o(i.Control_Task)
    DMA1_Channel2_3_IRQHandler               0x08001f89   Thumb Code    72  uart_3.o(i.DMA1_Channel2_3_IRQHandler)
    DMA_ClearFlag                            0x08001fdd   Thumb Code     6  stm32f0xx_dma.o(i.DMA_ClearFlag)
    DMA_ClearITPendingBit                    0x08001fe9   Thumb Code     6  stm32f0xx_dma.o(i.DMA_ClearITPendingBit)
    DMA_Cmd                                  0x08001ff5   Thumb Code    24  stm32f0xx_dma.o(i.DMA_Cmd)
    DMA_DeInit                               0x08002011   Thumb Code   208  stm32f0xx_dma.o(i.DMA_DeInit)
    DMA_GetITStatus                          0x080020e9   Thumb Code    22  stm32f0xx_dma.o(i.DMA_GetITStatus)
    DMA_ITConfig                             0x08002105   Thumb Code    20  stm32f0xx_dma.o(i.DMA_ITConfig)
    DMA_Init                                 0x08002119   Thumb Code    58  stm32f0xx_dma.o(i.DMA_Init)
    DMA_SetCurrDataCounter                   0x08002159   Thumb Code     4  stm32f0xx_dma.o(i.DMA_SetCurrDataCounter)
    DMA_StructInit                           0x0800215d   Thumb Code    26  stm32f0xx_dma.o(i.DMA_StructInit)
    Dis_4LED                                 0x08002179   Thumb Code   374  dis_task.o(i.Dis_4LED)
    Disable_Interrupt                        0x08002301   Thumb Code     4  system_config.o(i.Disable_Interrupt)
    Display_Task                             0x08002305   Thumb Code    84  dis_task.o(i.Display_Task)
    EXTI2_3_IRQHandler                       0x08002369   Thumb Code    26  spi.o(i.EXTI2_3_IRQHandler)
    EXTI_ClearITPendingBit                   0x08002389   Thumb Code     6  stm32f0xx_exti.o(i.EXTI_ClearITPendingBit)
    EXTI_Config                              0x08002395   Thumb Code    62  spi.o(i.EXTI_Config)
    EXTI_GetITStatus                         0x080023d9   Thumb Code    22  stm32f0xx_exti.o(i.EXTI_GetITStatus)
    EXTI_Init                                0x080023f5   Thumb Code   132  stm32f0xx_exti.o(i.EXTI_Init)
    Enable_Interrupt                         0x0800247d   Thumb Code     4  system_config.o(i.Enable_Interrupt)
    FLASH_ErasePage                          0x08002481   Thumb Code    76  stm32f0xx_flash.o(i.FLASH_ErasePage)
    FLASH_GetStatus                          0x080024d5   Thumb Code    54  stm32f0xx_flash.o(i.FLASH_GetStatus)
    FLASH_Lock                               0x08002511   Thumb Code    14  stm32f0xx_flash.o(i.FLASH_Lock)
    FLASH_ProgramHalfWord                    0x08002525   Thumb Code    62  stm32f0xx_flash.o(i.FLASH_ProgramHalfWord)
    FLASH_ProgramWord                        0x08002569   Thumb Code   108  stm32f0xx_flash.o(i.FLASH_ProgramWord)
    FLASH_Unlock                             0x080025dd   Thumb Code    24  stm32f0xx_flash.o(i.FLASH_Unlock)
    FLASH_WaitForLastOperation               0x08002601   Thumb Code    40  stm32f0xx_flash.o(i.FLASH_WaitForLastOperation)
    FM175XX_HPD                              0x08002629   Thumb Code    40  fm175xx.o(i.FM175XX_HPD)
    FM175XX_HardReset                        0x08002655   Thumb Code    56  fm175xx.o(i.FM175XX_HardReset)
    FM175XX_Initial_ReaderA                  0x08002691   Thumb Code    78  reader_api.o(i.FM175XX_Initial_ReaderA)
    FM175XX_Polling                          0x080026df   Thumb Code    56  reader_api.o(i.FM175XX_Polling)
    Flash_PagesMask                          0x08002717   Thumb Code    24  flash.o(i.Flash_PagesMask)
    Flash_Prepared                           0x0800272f   Thumb Code    74  flash.o(i.Flash_Prepared)
    Flash_Read                               0x08002779   Thumb Code    20  flash.o(i.Flash_Read)
    Flash_Write                              0x0800278d   Thumb Code    80  flash.o(i.Flash_Write)
    Flash_Write_Word                         0x080027dd   Thumb Code    98  flash.o(i.Flash_Write_Word)
    FormatFrame                              0x0800283f   Thumb Code   134  parseframe.o(i.FormatFrame)
    FrontLightProcess                        0x080028c5   Thumb Code    12  control_task.o(i.FrontLightProcess)
    GPIO_Init                                0x080028d1   Thumb Code   144  stm32f0xx_gpio.o(i.GPIO_Init)
    GPIO_PinAFConfig                         0x08002961   Thumb Code    68  stm32f0xx_gpio.o(i.GPIO_PinAFConfig)
    GPIO_ReadInputDataBit                    0x080029a5   Thumb Code    20  stm32f0xx_gpio.o(i.GPIO_ReadInputDataBit)
    GPIO_ResetBits                           0x080029b9   Thumb Code     4  stm32f0xx_gpio.o(i.GPIO_ResetBits)
    GPIO_SetBits                             0x080029bd   Thumb Code     4  stm32f0xx_gpio.o(i.GPIO_SetBits)
    GPIO_StructInit                          0x080029c1   Thumb Code    20  stm32f0xx_gpio.o(i.GPIO_StructInit)
    GetReg                                   0x080029d9   Thumb Code   124  fm175xx.o(i.GetReg)
    GetReg_Ext                               0x08002a59   Thumb Code    28  fm175xx.o(i.GetReg_Ext)
    Get_RealVaule                            0x08002a75   Thumb Code   188  universal_init.o(i.Get_RealVaule)
    Handle_RGB_Control                       0x08002b45   Thumb Code   116  led_others.o(i.Handle_RGB_Control)
    Handle_Temp_Ctr                          0x08002bbd   Thumb Code   362  handletemperature.o(i.Handle_Temp_Ctr)
    Handle_Temp_Set                          0x08002d31   Thumb Code    28  universal_init.o(i.Handle_Temp_Set)
    Handle_Timer_Init                        0x08002d51   Thumb Code   142  universal_init.o(i.Handle_Timer_Init)
    IAP_EraseSWFlash                         0x08002de9   Thumb Code    30  iap.o(i.IAP_EraseSWFlash)
    IAP_Init                                 0x08002e09   Thumb Code    42  iap.o(i.IAP_Init)
    IAP_ParseFrame                           0x08002e41   Thumb Code   806  iap.o(i.IAP_ParseFrame)
    IAP_Reset                                0x08003199   Thumb Code    64  iap.o(i.IAP_Reset)
    IAP_SaveFCtrlmap                         0x080031f9   Thumb Code    42  iap.o(i.IAP_SaveFCtrlmap)
    IAP_decrypt                              0x0800322d   Thumb Code   192  iap.o(i.IAP_decrypt)
    IIC_Init                                 0x080032f5   Thumb Code    38  iic.o(i.IIC_Init)
    IIC_PushFrame                            0x08003321   Thumb Code    56  iic.o(i.IIC_PushFrame)
    IIC_Send_Byte                            0x0800335d   Thumb Code   182  iic.o(i.IIC_Send_Byte)
    IicProcess                               0x080036a1   Thumb Code    80  iic.o(i.IicProcess)
    InitAllPeripherals                       0x080036f5   Thumb Code   118  system_config.o(i.InitAllPeripherals)
    JUDGE                                    0x080037b1   Thumb Code    34  reader_api.o(i.JUDGE)
    LED_DMA_Refresh                          0x080037d5   Thumb Code    66  led_others.o(i.LED_DMA_Refresh)
    LPCD_Read                                0x08003825   Thumb Code   298  reader_api.o(i.LPCD_Read)
    Lpcd_Calibrate_Driver                    0x080039ad   Thumb Code   228  reader_api.o(i.Lpcd_Calibrate_Driver)
    Lpcd_Calibrate_Reference                 0x08003aa1   Thumb Code   116  reader_api.o(i.Lpcd_Calibrate_Reference)
    Lpcd_Calibration_Backup                  0x08003b1d   Thumb Code    20  reader_api.o(i.Lpcd_Calibration_Backup)
    Lpcd_Calibration_Event                   0x08003b35   Thumb Code    52  reader_api.o(i.Lpcd_Calibration_Event)
    Lpcd_Calibration_Restore                 0x08003b69   Thumb Code    64  reader_api.o(i.Lpcd_Calibration_Restore)
    Lpcd_Get_Calibration_Value               0x08003bb9   Thumb Code    74  reader_api.o(i.Lpcd_Get_Calibration_Value)
    Lpcd_Get_IRQ                             0x08003c03   Thumb Code    16  reader_api.o(i.Lpcd_Get_IRQ)
    Lpcd_Get_Value                           0x08003c13   Thumb Code    48  reader_api.o(i.Lpcd_Get_Value)
    Lpcd_IRQ_Event                           0x08003c43   Thumb Code    14  reader_api.o(i.Lpcd_IRQ_Event)
    Lpcd_Init_Register                       0x08003c51   Thumb Code    42  reader_api.o(i.Lpcd_Init_Register)
    Lpcd_Reset_Status                        0x08003c7b   Thumb Code    22  reader_api.o(i.Lpcd_Reset_Status)
    Lpcd_Set_Driver                          0x08003c91   Thumb Code    94  reader_api.o(i.Lpcd_Set_Driver)
    Lpcd_Set_Gain                            0x08003cef   Thumb Code    20  reader_api.o(i.Lpcd_Set_Gain)
    Lpcd_Set_IE                              0x08003d03   Thumb Code    28  reader_api.o(i.Lpcd_Set_IE)
    Lpcd_Set_IRQ_pin                         0x08003d1f   Thumb Code    20  reader_api.o(i.Lpcd_Set_IRQ_pin)
    Lpcd_Set_Mode                            0x08003d33   Thumb Code    34  reader_api.o(i.Lpcd_Set_Mode)
    Lpcd_Set_Reference                       0x08003d55   Thumb Code    42  reader_api.o(i.Lpcd_Set_Reference)
    Lpcd_Set_Threshold                       0x08003d7f   Thumb Code    56  reader_api.o(i.Lpcd_Set_Threshold)
    Lpcd_Set_Timer                           0x08003db9   Thumb Code   178  reader_api.o(i.Lpcd_Set_Timer)
    Lpcd_WaitFor_Irq                         0x08003e71   Thumb Code    58  reader_api.o(i.Lpcd_WaitFor_Irq)
    Mifare_Auth                              0x08003eab   Thumb Code   182  mifare.o(i.Mifare_Auth)
    Mifare_Blockread                         0x08003f61   Thumb Code    98  mifare.o(i.Mifare_Blockread)
    Mifare_Blockwrite                        0x08003fc3   Thumb Code   152  mifare.o(i.Mifare_Blockwrite)
    ModifyReg                                0x0800405b   Thumb Code    50  fm175xx.o(i.ModifyReg)
    ModifyReg_Ext                            0x0800408d   Thumb Code    50  fm175xx.o(i.ModifyReg_Ext)
    NVIC_Configuration                       0x08004191   Thumb Code    50  system_config.o(i.NVIC_Configuration)
    NVIC_Init                                0x080041c5   Thumb Code   106  stm32f0xx_misc.o(i.NVIC_Init)
    Normal_Tasks_Remarks                     0x08004265   Thumb Code    72  control_task.o(i.Normal_Tasks_Remarks)
    ParseFrame                               0x080042b1   Thumb Code   446  parseframe.o(i.ParseFrame)
    Peripherals_Clock_Init                   0x0800447d   Thumb Code   158  system_config.o(i.Peripherals_Clock_Init)
    PowerON_RGB                              0x0800451d   Thumb Code   102  led_others.o(i.PowerON_RGB)
    PushMiniFrame                            0x0800458d   Thumb Code    34  parseframe.o(i.PushMiniFrame)
    Query_Send_Data_Pro                      0x080045b1   Thumb Code   132  stateupdate.o(i.Query_Send_Data_Pro)
    RCC_ADCCLKConfig                         0x08004641   Thumb Code    52  stm32f0xx_rcc.o(i.RCC_ADCCLKConfig)
    RCC_AHBPeriphClockCmd                    0x08004679   Thumb Code    28  stm32f0xx_rcc.o(i.RCC_AHBPeriphClockCmd)
    RCC_APB1PeriphClockCmd                   0x08004699   Thumb Code    28  stm32f0xx_rcc.o(i.RCC_APB1PeriphClockCmd)
    RCC_APB1PeriphResetCmd                   0x080046b9   Thumb Code    28  stm32f0xx_rcc.o(i.RCC_APB1PeriphResetCmd)
    RCC_APB2PeriphClockCmd                   0x080046d9   Thumb Code    28  stm32f0xx_rcc.o(i.RCC_APB2PeriphClockCmd)
    RCC_APB2PeriphResetCmd                   0x080046f9   Thumb Code    28  stm32f0xx_rcc.o(i.RCC_APB2PeriphResetCmd)
    RCC_GetClocksFreq                        0x08004719   Thumb Code   468  stm32f0xx_rcc.o(i.RCC_GetClocksFreq)
    RGB_Bit_Set                              0x08004909   Thumb Code   236  led_others.o(i.RGB_Bit_Set)
    RGB_Buff_Init                            0x08004a05   Thumb Code    50  led_others.o(i.RGB_Buff_Init)
    RGB_Time_Init                            0x08004a3d   Thumb Code   244  led_others.o(i.RGB_Time_Init)
    ReadUniqueID                             0x08004b3d   Thumb Code    64  system_config.o(i.ReadUniqueID)
    ReaderA_AntiColl                         0x08004b85   Thumb Code   182  reader_api.o(i.ReaderA_AntiColl)
    ReaderA_CardActivate                     0x08004c45   Thumb Code   122  reader_api.o(i.ReaderA_CardActivate)
    ReaderA_Select                           0x08004cc5   Thumb Code   162  reader_api.o(i.ReaderA_Select)
    ReaderA_Wakeup                           0x08004d71   Thumb Code    90  reader_api.o(i.ReaderA_Wakeup)
    SPI1_Configuration                       0x08004dd1   Thumb Code   198  spi.o(i.SPI1_Configuration)
    SPI_Cmd                                  0x08004ea1   Thumb Code    24  stm32f0xx_spi.o(i.SPI_Cmd)
    SPI_I2S_ClearFlag                        0x08004ebd   Thumb Code     6  stm32f0xx_spi.o(i.SPI_I2S_ClearFlag)
    SPI_I2S_GetFlagStatus                    0x08004ec3   Thumb Code    20  stm32f0xx_spi.o(i.SPI_I2S_GetFlagStatus)
    SPI_Init                                 0x08004ed9   Thumb Code    76  stm32f0xx_spi.o(i.SPI_Init)
    SPI_Read_FIFO                            0x08004f31   Thumb Code   142  fm175xx.o(i.SPI_Read_FIFO)
    SPI_ReceiveData8                         0x08004fc5   Thumb Code    12  stm32f0xx_spi.o(i.SPI_ReceiveData8)
    SPI_RxFIFOThresholdConfig                0x08004fd1   Thumb Code    16  stm32f0xx_spi.o(i.SPI_RxFIFOThresholdConfig)
    SPI_SendData8                            0x08004fe5   Thumb Code    10  stm32f0xx_spi.o(i.SPI_SendData8)
    SPI_Write_FIFO                           0x08004ff1   Thumb Code   106  fm175xx.o(i.SPI_Write_FIFO)
    SVC_Handler                              0x08005061   Thumb Code     2  port.o(i.SVC_Handler)
    SYSCFG_EXTILineConfig                    0x08005065   Thumb Code    60  stm32f0xx_syscfg.o(i.SYSCFG_EXTILineConfig)
    SYSCFG_MemoryRemapConfig                 0x080050a5   Thumb Code    24  stm32f0xx_syscfg.o(i.SYSCFG_MemoryRemapConfig)
    SaveFDatamap                             0x080050c1   Thumb Code   234  system_config.o(i.SaveFDatamap)
    SetErrorByte                             0x080051c5   Thumb Code    22  system_config.o(i.SetErrorByte)
    SetReceiveCRC                            0x080051e1   Thumb Code    32  reader_api.o(i.SetReceiveCRC)
    SetReg                                   0x08005201   Thumb Code   108  fm175xx.o(i.SetReg)
    SetReg_Ext                               0x08005271   Thumb Code    32  fm175xx.o(i.SetReg_Ext)
    SetRf                                    0x08005291   Thumb Code    88  reader_api.o(i.SetRf)
    SetSendCRC                               0x080052ed   Thumb Code    32  reader_api.o(i.SetSendCRC)
    SetTimeOut                               0x0800530d   Thumb Code    96  reader_api.o(i.SetTimeOut)
    SysTick_CLKSourceConfig                  0x08005379   Thumb Code    32  stm32f0xx_misc.o(i.SysTick_CLKSourceConfig)
    SysTick_Handler                          0x0800539d   Thumb Code    32  port.o(i.SysTick_Handler)
    SystemCoreClockConfigure                 0x080053c1   Thumb Code   206  system_config.o(i.SystemCoreClockConfigure)
    SystemCoreClockUpdate                    0x08005499   Thumb Code   154  system_stm32f0xx.o(i.SystemCoreClockUpdate)
    SystemInit                               0x08005549   Thumb Code   104  system_stm32f0xx.o(i.SystemInit)
    TIM2_IRQHandler                          0x080055bd   Thumb Code    28  universal_init.o(i.TIM2_IRQHandler)
    TIM_ARRPreloadConfig                     0x080055d9   Thumb Code    24  stm32f0xx_tim.o(i.TIM_ARRPreloadConfig)
    TIM_ClearFlag                            0x080055f5   Thumb Code     6  stm32f0xx_tim.o(i.TIM_ClearFlag)
    TIM_ClearITPendingBit                    0x080055fb   Thumb Code     6  stm32f0xx_tim.o(i.TIM_ClearITPendingBit)
    TIM_Cmd                                  0x08005601   Thumb Code    24  stm32f0xx_tim.o(i.TIM_Cmd)
    TIM_CtrlPWMOutputs                       0x0800561d   Thumb Code    34  stm32f0xx_tim.o(i.TIM_CtrlPWMOutputs)
    TIM_DMACmd                               0x0800563f   Thumb Code    20  stm32f0xx_tim.o(i.TIM_DMACmd)
    TIM_DeInit                               0x08005655   Thumb Code   228  stm32f0xx_tim.o(i.TIM_DeInit)
    TIM_GetITStatus                          0x08005759   Thumb Code    38  stm32f0xx_tim.o(i.TIM_GetITStatus)
    TIM_ITConfig                             0x0800577f   Thumb Code    20  stm32f0xx_tim.o(i.TIM_ITConfig)
    TIM_OC1Init                              0x08005795   Thumb Code   122  stm32f0xx_tim.o(i.TIM_OC1Init)
    TIM_OC1PreloadConfig                     0x08005829   Thumb Code    20  stm32f0xx_tim.o(i.TIM_OC1PreloadConfig)
    TIM_OC2Init                              0x08005841   Thumb Code   142  stm32f0xx_tim.o(i.TIM_OC2Init)
    TIM_OC2PreloadConfig                     0x080058ed   Thumb Code    20  stm32f0xx_tim.o(i.TIM_OC2PreloadConfig)
    TIM_OC3Init                              0x08005905   Thumb Code   124  stm32f0xx_tim.o(i.TIM_OC3Init)
    TIM_OC3PreloadConfig                     0x0800599d   Thumb Code    20  stm32f0xx_tim.o(i.TIM_OC3PreloadConfig)
    TIM_OCStructInit                         0x080059b5   Thumb Code    20  stm32f0xx_tim.o(i.TIM_OCStructInit)
    TIM_SetCompare1                          0x080059c9   Thumb Code     4  stm32f0xx_tim.o(i.TIM_SetCompare1)
    TIM_SetCompare2                          0x080059cd   Thumb Code     4  stm32f0xx_tim.o(i.TIM_SetCompare2)
    TIM_SetCompare3                          0x080059d1   Thumb Code     4  stm32f0xx_tim.o(i.TIM_SetCompare3)
    TIM_TimeBaseInit                         0x080059d5   Thumb Code    90  stm32f0xx_tim.o(i.TIM_TimeBaseInit)
    TIM_TimeBaseStructInit                   0x08005a51   Thumb Code    18  stm32f0xx_tim.o(i.TIM_TimeBaseStructInit)
    TYPE_A_EVENT                             0x08005a65   Thumb Code   272  reader_api.o(i.TYPE_A_EVENT)
    Timer2Init                               0x08005b99   Thumb Code    56  universal_init.o(i.Timer2Init)
    UART3_CheckReceive                       0x08005bd1   Thumb Code   120  uart_3.o(i.UART3_CheckReceive)
    UART3_CheckSend                          0x08005c5d   Thumb Code    76  uart_3.o(i.UART3_CheckSend)
    UART3_DMAConfiguration                   0x08005cbd   Thumb Code   192  uart_3.o(i.UART3_DMAConfiguration)
    UART3_InitVariables                      0x08005dbd   Thumb Code     8  uart_3.o(i.UART3_InitVariables)
    UART3_Int                                0x08005dc9   Thumb Code   136  uart_3.o(i.UART3_Int)
    UART3_ParseData                          0x08005e59   Thumb Code   256  uart_3.o(i.UART3_ParseData)
    UART3_PushFrame                          0x08005f71   Thumb Code   148  uart_3.o(i.UART3_PushFrame)
    USART_Cmd                                0x08006095   Thumb Code    24  stm32f0xx_usart.o(i.USART_Cmd)
    USART_DMACmd                             0x080060ad   Thumb Code    20  stm32f0xx_usart.o(i.USART_DMACmd)
    USART_DeInit                             0x080060c1   Thumb Code   108  stm32f0xx_usart.o(i.USART_DeInit)
    USART_HalfDuplexCmd                      0x0800613d   Thumb Code    24  stm32f0xx_usart.o(i.USART_HalfDuplexCmd)
    USART_Init                               0x08006155   Thumb Code   214  stm32f0xx_usart.o(i.USART_Init)
    Variables_Init                           0x0800623d   Thumb Code    84  system_config.o(i.Variables_Init)
    Wireless_Power_Ctr_Handler               0x080062a9   Thumb Code   332  control_task.o(i.Wireless_Power_Ctr_Handler)
    __ARM_common_switch8                     0x0800641d   Thumb Code    28  iic.o(i.__ARM_common_switch8)
    __scatterload_copy                       0x08006439   Thumb Code    14  handlers.o(i.__scatterload_copy)
    __scatterload_null                       0x08006447   Thumb Code     2  handlers.o(i.__scatterload_null)
    __scatterload_zeroinit                   0x08006449   Thumb Code    14  handlers.o(i.__scatterload_zeroinit)
    check_NFC_key                            0x08006459   Thumb Code    32  reader_api.o(i.check_NFC_key)
    delay_init                               0x08006485   Thumb Code    62  system_config.o(i.delay_init)
    delay_us                                 0x080064d9   Thumb Code    62  system_config.o(i.delay_us)
    eTaskConfirmSleepModeStatus              0x08006521   Thumb Code    46  tasks.o(i.eTaskConfirmSleepModeStatus)
    gpioGetInput                             0x08006561   Thumb Code    74  gpio.o(i.gpioGetInput)
    gpioInitialize                           0x080065b1   Thumb Code    34  gpio.o(i.gpioInitialize)
    gpioSetOutput                            0x080065d9   Thumb Code    54  gpio.o(i.gpioSetOutput)
    mDelay                                   0x08006615   Thumb Code    52  fm175xx.o(i.mDelay)
    main                                     0x0800664d   Thumb Code    46  main.o(i.main)
    pvPortMalloc                             0x08007159   Thumb Code   274  heap_4.o(i.pvPortMalloc)
    pxPortInitialiseStack                    0x08007285   Thumb Code    26  port.o(i.pxPortInitialiseStack)
    start_task                               0x080072a5   Thumb Code    96  main.o(i.start_task)
    turnLightProcess                         0x08007349   Thumb Code    32  turnlightprocess.o(i.turnLightProcess)
    uDelay                                   0x0800736d   Thumb Code    22  reader_api.o(i.uDelay)
    uxListRemove                             0x08007383   Thumb Code    40  list.o(i.uxListRemove)
    vListInitialise                          0x080073ab   Thumb Code    26  list.o(i.vListInitialise)
    vListInitialiseItem                      0x080073c5   Thumb Code     6  list.o(i.vListInitialiseItem)
    vListInsert                              0x080073cb   Thumb Code    54  list.o(i.vListInsert)
    vListInsertEnd                           0x08007401   Thumb Code    24  list.o(i.vListInsertEnd)
    vPortEnterCritical                       0x08007419   Thumb Code    22  port.o(i.vPortEnterCritical)
    vPortExitCritical                        0x08007435   Thumb Code    36  port.o(i.vPortExitCritical)
    vPortFree                                0x0800745d   Thumb Code   130  heap_4.o(i.vPortFree)
    vPortSetupTimerInterrupt                 0x080074ed   Thumb Code    70  port.o(i.vPortSetupTimerInterrupt)
    vPortSuppressTicksAndSleep               0x0800754d   Thumb Code   306  port.o(i.vPortSuppressTicksAndSleep)
    vPortYield                               0x08007691   Thumb Code    18  port.o(i.vPortYield)
    vQueueWaitForMessageRestricted           0x080076a9   Thumb Code    76  queue.o(i.vQueueWaitForMessageRestricted)
    vTaskDelay                               0x080076f5   Thumb Code    62  tasks.o(i.vTaskDelay)
    vTaskDelete                              0x08007739   Thumb Code   150  tasks.o(i.vTaskDelete)
    vTaskInternalSetTimeOutState             0x080077ed   Thumb Code    14  tasks.o(i.vTaskInternalSetTimeOutState)
    vTaskMissedYield                         0x08007805   Thumb Code     8  tasks.o(i.vTaskMissedYield)
    vTaskPlaceOnEventList                    0x08007811   Thumb Code    38  tasks.o(i.vTaskPlaceOnEventList)
    vTaskPlaceOnEventListRestricted          0x0800783d   Thumb Code    48  tasks.o(i.vTaskPlaceOnEventListRestricted)
    vTaskStartScheduler                      0x08007871   Thumb Code    90  tasks.o(i.vTaskStartScheduler)
    vTaskStepTick                            0x080078e9   Thumb Code    42  tasks.o(i.vTaskStepTick)
    vTaskSuspendAll                          0x0800791d   Thumb Code    12  tasks.o(i.vTaskSuspendAll)
    vTaskSwitchContext                       0x0800792d   Thumb Code   108  tasks.o(i.vTaskSwitchContext)
    xPortStartScheduler                      0x080079ad   Thumb Code    48  port.o(i.xPortStartScheduler)
    xQueueGenericCreate                      0x080079e5   Thumb Code    76  queue.o(i.xQueueGenericCreate)
    xQueueGenericReset                       0x08007a31   Thumb Code   130  queue.o(i.xQueueGenericReset)
    xQueueGenericSend                        0x08007ab3   Thumb Code   382  queue.o(i.xQueueGenericSend)
    xQueueGenericSendFromISR                 0x08007c31   Thumb Code   228  queue.o(i.xQueueGenericSendFromISR)
    xQueueReceive                            0x08007d15   Thumb Code   312  queue.o(i.xQueueReceive)
    xTaskCheckForTimeOut                     0x08007e4d   Thumb Code   132  tasks.o(i.xTaskCheckForTimeOut)
    xTaskCreate                              0x08007edd   Thumb Code    92  tasks.o(i.xTaskCreate)
    xTaskGetSchedulerState                   0x08007f39   Thumb Code    28  tasks.o(i.xTaskGetSchedulerState)
    xTaskGetTickCount                        0x08007f5d   Thumb Code     6  tasks.o(i.xTaskGetTickCount)
    xTaskIncrementTick                       0x08007f69   Thumb Code   270  tasks.o(i.xTaskIncrementTick)
    xTaskPriorityDisinherit                  0x080080a5   Thumb Code   124  tasks.o(i.xTaskPriorityDisinherit)
    xTaskRemoveFromEventList                 0x0800812d   Thumb Code   116  tasks.o(i.xTaskRemoveFromEventList)
    xTaskResumeAll                           0x080081b9   Thumb Code   206  tasks.o(i.xTaskResumeAll)
    xTimerCreateTimerTask                    0x080082a9   Thumb Code    52  timers.o(i.xTimerCreateTimerTask)
    xTimerGenericCommand                     0x080082f1   Thumb Code   110  timers.o(i.xTimerGenericCommand)
    Region$$Table$$Base                      0x08008384   Number         0  anon$$obj.o(Region$$Table)
    Region$$Table$$Limit                     0x080083a4   Number         0  anon$$obj.o(Region$$Table)
    temp_address                             0x200000c0   Data           4  stm32f0xx_flash.o(.data)
    temp_Address                             0x200000c4   Data           4  stm32f0xx_flash.o(.data)
    SystemCoreClock                          0x200000d8   Data           4  system_stm32f0xx.o(.data)
    AHBPrescTable                            0x200000dc   Data          16  system_stm32f0xx.o(.data)
    StartTask_Handler                        0x200000ec   Data           4  main.o(.data)
    Task1Task_Handler                        0x200000f0   Data           4  main.o(.data)
    Task2Task_Handler                        0x200000f4   Data           4  main.o(.data)
    Task3Task_Handler                        0x200000f8   Data           4  main.o(.data)
    COM1_Message_Queue                       0x200001e4   Data           4  user_com_task.o(.data)
    m_EUART3_TxFrm_Tail                      0x200001ec   Data           1  uart_3.o(.data)
    m_EUART3_TxFrm_Head                      0x200001ed   Data           1  uart_3.o(.data)
    m_EUART3_TxFrm_FreeFrmLen                0x200001ee   Data           1  uart_3.o(.data)
    m_EUART3_DMA_RXPtr                       0x200001f0   Data           4  uart_3.o(.data)
    m_bEUART3PushingFrms                     0x200001f4   Data           1  uart_3.o(.data)
    m_bEUART3CheckingRec                     0x200001f5   Data           1  uart_3.o(.data)
    m_bEUART3CheckingSend                    0x200001f6   Data           1  uart_3.o(.data)
    m_bEUART3TxEn                            0x200001f7   Data           1  uart_3.o(.data)
    g_FCtrlMap_Default                       0x20000288   Data          12  iap.o(.data)
    m_BinOldSliceForDecr                     0x20000294   Data           8  iap.o(.data)
    m_BinNewSliceForDecr                     0x2000029c   Data           8  iap.o(.data)
    X_Temp_Handle                            0x200002a4   Data          48  handletemperature.o(.data)
    Y_Res_Handle                             0x200002d4   Data          48  handletemperature.o(.data)
    _temperature_object                      0x20000304   Data          12  handletemperature.o(.data)
    NFC_SECTOR                               0x20000314   Data           1  mifare.o(.data)
    NFC_BLOCK                                0x20000315   Data           1  mifare.o(.data)
    NFC_BLOCK_NUM                            0x20000316   Data           1  mifare.o(.data)
    BLOCK_DATA                               0x20000317   Data          16  mifare.o(.data)
    BLOCK_DATA_W                             0x20000327   Data          16  mifare.o(.data)
    KEY_A                                    0x20000337   Data          96  mifare.o(.data)
    KEY_B                                    0x20000397   Data          96  mifare.o(.data)
    succeed                                  0x200003f8   Data           1  reader_api.o(.data)
    NFC_INT                                  0x200003f9   Data           1  reader_api.o(.data)
    NFC_set                                  0x200003fa   Data           2  reader_api.o(.data)
    _my_id                                   0x200003fc   Data           8  reader_api.o(.data)
    Lpcd_Debug_Info                          0x20000404   Data           1  reader_api.o(.data)
    Lpcd_Debug_Test                          0x20000405   Data           1  reader_api.o(.data)
    s_error_cnt                              0x20000406   Data           1  reader_api.o(.data)
    g_Clear_error_cnt                        0x2000040c   Data           2  variable.o(.data)
    g_ErrorByte                              0x2000040e   Data           1  variable.o(.data)
    g_wireless_charger_vol                   0x2000040f   Data           1  variable.o(.data)
    g_12V_vol                                0x20000410   Data           1  variable.o(.data)
    g_leftBreakGnd_vol                       0x20000412   Data           2  variable.o(.data)
    g_rightBreakGnd_vol                      0x20000414   Data           2  variable.o(.data)
    g_accGnd_vol                             0x20000416   Data           2  variable.o(.data)
    pxCurrentTCB                             0x20000448   Data           4  tasks.o(.data)
    m_ADCValue                               0x20000498   Data          96  universal_init.o(.bss)
    m_EUART3_TxFrames                        0x200004f8   Data         604  uart_3.o(.bss)
    m_EUART3_DMA_RXBuf                       0x20000754   Data         150  uart_3.o(.bss)
    Ambient_light_object                     0x20000908   Data          40  ambient_light_app.o(.bss)
    iic_t                                    0x20000930   Data          24  iic.o(.bss)
    g_FCtrlMap                               0x20000948   Data          12  iap.o(.bss)
    m_key                                    0x20000954   Data          16  iap.o(.bss)
    g_DecryptDataBuf                         0x20000964   Data         200  iap.o(.bss)
    iap_state                                0x20000a2c   Data          24  iap.o(.bss)
    BLOCK_DATA_R                             0x20000a44   Data          16  mifare.o(.bss)
    DATA_W_RAND                              0x20000a54   Data          16  mifare.o(.bss)
    PICC_A                                   0x20000a64   Data          25  reader_api.o(.bss)
    PICC_B                                   0x20000a7d   Data          41  reader_api.o(.bss)
    Lpcd                                     0x20000aa6   Data          20  reader_api.o(.bss)
    g_NBCmdMap                               0x20000aba   Data          32  variable.o(.bss)
    g_myself_data                            0x20000ada   Data         108  variable.o(.bss)
    g_bool                                   0x20000b46   Data          26  variable.o(.bss)
    __initial_sp                             0x20002cb8   Data           0  startup_stm32f072.o(STACK)



==============================================================================

Memory Map of the image

  Image Entry point : 0x080010c1

  Load Region LR_IROM1 (Base: 0x08001000, Size: 0x0000777c, Max: 0x00020000, ABSOLUTE, COMPRESSED[0x000074cc])

    Execution Region ER_IROM1 (Exec base: 0x08001000, Load base: 0x08001000, Size: 0x000073a4, Max: 0x00020000, ABSOLUTE)

    Exec Addr    Load Addr    Size         Type   Attr      Idx    E Section Name        Object

    0x08001000   0x08001000   0x000000c0   Data   RO            3    RESET               startup_stm32f072.o
    0x080010c0   0x080010c0   0x00000000   Code   RO         6595  * .ARM.Collect$$$$00000000  mc_p.l(entry.o)
    0x080010c0   0x080010c0   0x00000004   Code   RO         6610    .ARM.Collect$$$$00000001  mc_p.l(entry2.o)
    0x080010c4   0x080010c4   0x00000004   Code   RO         6613    .ARM.Collect$$$$00000004  mc_p.l(entry5.o)
    0x080010c8   0x080010c8   0x00000000   Code   RO         6615    .ARM.Collect$$$$00000008  mc_p.l(entry7b.o)
    0x080010c8   0x080010c8   0x00000000   Code   RO         6617    .ARM.Collect$$$$0000000A  mc_p.l(entry8b.o)
    0x080010c8   0x080010c8   0x00000008   Code   RO         6618    .ARM.Collect$$$$0000000B  mc_p.l(entry9a.o)
    0x080010d0   0x080010d0   0x00000004   Code   RO         6625    .ARM.Collect$$$$0000000E  mc_p.l(entry12b.o)
    0x080010d4   0x080010d4   0x00000000   Code   RO         6620    .ARM.Collect$$$$0000000F  mc_p.l(entry10a.o)
    0x080010d4   0x080010d4   0x00000000   Code   RO         6622    .ARM.Collect$$$$00000011  mc_p.l(entry11a.o)
    0x080010d4   0x080010d4   0x00000004   Code   RO         6611    .ARM.Collect$$$$00002712  mc_p.l(entry2.o)
    0x080010d8   0x080010d8   0x0000001c   Code   RO            4    .text               startup_stm32f072.o
    0x080010f4   0x080010f4   0x0000000a   Code   RO         2734    i.ADC_StartOfConversion  stm32f0xx_adc.o
    0x080010fe   0x080010fe   0x00000002   Code   RO         5153    i.RE_LPCD_CALIBRATION  reader_api.o
    0x08001100   0x08001100   0x00000010   Data   RO         4803    .ARM.__AT_0x08001100  iap.o
    0x08001110   0x08001110   0x00000078   Code   RO         5703    .emb_text           port.o
    0x08001188   0x08001188   0x0000002c   Code   RO         6598    .text               mc_p.l(uidiv.o)
    0x080011b4   0x080011b4   0x00000028   Code   RO         6600    .text               mc_p.l(idiv.o)
    0x080011dc   0x080011dc   0x00000024   Code   RO         6602    .text               mc_p.l(memcpya.o)
    0x08001200   0x08001200   0x00000024   Code   RO         6604    .text               mc_p.l(memseta.o)
    0x08001224   0x08001224   0x00000024   Code   RO         6626    .text               mc_p.l(init.o)
    0x08001248   0x08001248   0x00000056   Code   RO         6636    .text               mc_p.l(__dczerorl2.o)
    0x0800129e   0x0800129e   0x00000002   PAD
    0x080012a0   0x080012a0   0x00000058   Code   RO         4120    i.ADCDMAConfiguration  universal_init.o
    0x080012f8   0x080012f8   0x00000018   Code   RO         2716    i.ADC_ChannelConfig  stm32f0xx_adc.o
    0x08001310   0x08001310   0x00000018   Code   RO         2720    i.ADC_Cmd           stm32f0xx_adc.o
    0x08001328   0x08001328   0x00000018   Code   RO         2722    i.ADC_DMACmd        stm32f0xx_adc.o
    0x08001340   0x08001340   0x00000010   Code   RO         2723    i.ADC_DMARequestModeConfig  stm32f0xx_adc.o
    0x08001350   0x08001350   0x00000020   Code   RO         2724    i.ADC_DeInit        stm32f0xx_adc.o
    0x08001370   0x08001370   0x0000003c   Code   RO         2726    i.ADC_GetCalibrationFactor  stm32f0xx_adc.o
    0x080013ac   0x080013ac   0x00000030   Code   RO         2728    i.ADC_GetFlagStatus  stm32f0xx_adc.o
    0x080013dc   0x080013dc   0x0000002c   Code   RO         4121    i.ADC_Get_ConversionValue  universal_init.o
    0x08001408   0x08001408   0x0000002c   Code   RO         2731    i.ADC_Init          stm32f0xx_adc.o
    0x08001434   0x08001434   0x0000012c   Code   RO         4122    i.ADC_Int           universal_init.o
    0x08001560   0x08001560   0x00000010   Code   RO         2736    i.ADC_StructInit    stm32f0xx_adc.o
    0x08001570   0x08001570   0x0000000e   Code   RO         4453    i.ALL_RGB_OFF       led_others.o
    0x0800157e   0x0800157e   0x0000000a   Code   RO         4519    i.Ambient_ClearColor  ambient_light_app.o
    0x08001588   0x08001588   0x00000114   Code   RO         4520    i.Ambient_Light_ALL_Pro  ambient_light_app.o
    0x0800169c   0x0800169c   0x00000118   Code   RO         4521    i.Ambient_Light_Breathe_Pro  ambient_light_app.o
    0x080017b4   0x080017b4   0x00000064   Code   RO         4522    i.Ambient_Light_Changliang  ambient_light_app.o
    0x08001818   0x08001818   0x00000044   Code   RO         4523    i.Ambient_Light_Malloc_Init  ambient_light_app.o
    0x0800185c   0x0800185c   0x00000050   Code   RO         4524    i.Ambient_Light_Set  ambient_light_app.o
    0x080018ac   0x080018ac   0x00000024   Code   RO         4525    i.Ambient_Timer_Cmp_Update  ambient_light_app.o
    0x080018d0   0x080018d0   0x000000c8   Code   RO         4123    i.Ambient_Timer_Init  universal_init.o
    0x08001998   0x08001998   0x0000000a   Code   RO         4526    i.Ambient_light_Start  ambient_light_app.o
    0x080019a2   0x080019a2   0x00000002   PAD
    0x080019a4   0x080019a4   0x000000a4   Code   RO         4454    i.Ambientlight_breath  led_others.o
    0x08001a48   0x08001a48   0x000000f4   Code   RO         4685    i.Beep_Ctrl_Pro     control_task.o
    0x08001b3c   0x08001b3c   0x00000078   Code   RO         4294    i.COM1_Task         user_com_task.o
    0x08001bb4   0x08001bb4   0x0000005c   Code   RO         4686    i.COM_Overtime_Check_Pro  control_task.o
    0x08001c10   0x08001c10   0x00000092   Code   RO         4861    i.Calculate_Value_By_Linertable  handletemperature.o
    0x08001ca2   0x08001ca2   0x0000001e   Code   RO         4252    i.CheckSum          parseframe.o
    0x08001cc0   0x08001cc0   0x00000044   Code   RO         4900    i.Check_IAP_Mode    stateupdate.o
    0x08001d04   0x08001d04   0x00000014   Code   RO         3997    i.ClearErrorByte    system_config.o
    0x08001d18   0x08001d18   0x00000020   Code   RO         4957    i.Clear_FIFO        fm175xx.o
    0x08001d38   0x08001d38   0x0000023c   Code   RO         5127    i.Command_Execute   reader_api.o
    0x08001f74   0x08001f74   0x00000012   Code   RO         4687    i.Control_Task      control_task.o
    0x08001f86   0x08001f86   0x00000002   PAD
    0x08001f88   0x08001f88   0x00000054   Code   RO         4328    i.DMA1_Channel2_3_IRQHandler  uart_3.o
    0x08001fdc   0x08001fdc   0x0000000c   Code   RO          362    i.DMA_ClearFlag     stm32f0xx_dma.o
    0x08001fe8   0x08001fe8   0x0000000c   Code   RO          363    i.DMA_ClearITPendingBit  stm32f0xx_dma.o
    0x08001ff4   0x08001ff4   0x0000001c   Code   RO          364    i.DMA_Cmd           stm32f0xx_dma.o
    0x08002010   0x08002010   0x000000d8   Code   RO          365    i.DMA_DeInit        stm32f0xx_dma.o
    0x080020e8   0x080020e8   0x0000001c   Code   RO          368    i.DMA_GetITStatus   stm32f0xx_dma.o
    0x08002104   0x08002104   0x00000014   Code   RO          369    i.DMA_ITConfig      stm32f0xx_dma.o
    0x08002118   0x08002118   0x00000040   Code   RO          370    i.DMA_Init          stm32f0xx_dma.o
    0x08002158   0x08002158   0x00000004   Code   RO          371    i.DMA_SetCurrDataCounter  stm32f0xx_dma.o
    0x0800215c   0x0800215c   0x0000001a   Code   RO          372    i.DMA_StructInit    stm32f0xx_dma.o
    0x08002176   0x08002176   0x00000002   PAD
    0x08002178   0x08002178   0x00000188   Code   RO         4416    i.Dis_4LED          dis_task.o
    0x08002300   0x08002300   0x00000004   Code   RO         3998    i.Disable_Interrupt  system_config.o
    0x08002304   0x08002304   0x00000064   Code   RO         4417    i.Display_Task      dis_task.o
    0x08002368   0x08002368   0x00000020   Code   RO         5433    i.EXTI2_3_IRQHandler  spi.o
    0x08002388   0x08002388   0x0000000c   Code   RO          443    i.EXTI_ClearITPendingBit  stm32f0xx_exti.o
    0x08002394   0x08002394   0x00000044   Code   RO         5434    i.EXTI_Config       spi.o
    0x080023d8   0x080023d8   0x0000001c   Code   RO          447    i.EXTI_GetITStatus  stm32f0xx_exti.o
    0x080023f4   0x080023f4   0x00000088   Code   RO          448    i.EXTI_Init         stm32f0xx_exti.o
    0x0800247c   0x0800247c   0x00000004   Code   RO         3999    i.Enable_Interrupt  system_config.o
    0x08002480   0x08002480   0x00000054   Code   RO          506    i.FLASH_ErasePage   stm32f0xx_flash.o
    0x080024d4   0x080024d4   0x0000003c   Code   RO          509    i.FLASH_GetStatus   stm32f0xx_flash.o
    0x08002510   0x08002510   0x00000014   Code   RO          511    i.FLASH_Lock        stm32f0xx_flash.o
    0x08002524   0x08002524   0x00000044   Code   RO          530    i.FLASH_ProgramHalfWord  stm32f0xx_flash.o
    0x08002568   0x08002568   0x00000074   Code   RO          531    i.FLASH_ProgramWord  stm32f0xx_flash.o
    0x080025dc   0x080025dc   0x00000024   Code   RO          533    i.FLASH_Unlock      stm32f0xx_flash.o
    0x08002600   0x08002600   0x00000028   Code   RO          534    i.FLASH_WaitForLastOperation  stm32f0xx_flash.o
    0x08002628   0x08002628   0x0000002c   Code   RO         4958    i.FM175XX_HPD       fm175xx.o
    0x08002654   0x08002654   0x0000003c   Code   RO         4959    i.FM175XX_HardReset  fm175xx.o
    0x08002690   0x08002690   0x0000004e   Code   RO         5128    i.FM175XX_Initial_ReaderA  reader_api.o
    0x080026de   0x080026de   0x00000038   Code   RO         5130    i.FM175XX_Polling   reader_api.o
    0x08002716   0x08002716   0x00000018   Code   RO         4750    i.Flash_PagesMask   flash.o
    0x0800272e   0x0800272e   0x0000004a   Code   RO         4751    i.Flash_Prepared    flash.o
    0x08002778   0x08002778   0x00000014   Code   RO         4752    i.Flash_Read        flash.o
    0x0800278c   0x0800278c   0x00000050   Code   RO         4753    i.Flash_Write       flash.o
    0x080027dc   0x080027dc   0x00000062   Code   RO         4754    i.Flash_Write_Word  flash.o
    0x0800283e   0x0800283e   0x00000086   Code   RO         4253    i.FormatFrame       parseframe.o
    0x080028c4   0x080028c4   0x0000000c   Code   RO         4688    i.FrontLightProcess  control_task.o
    0x080028d0   0x080028d0   0x00000090   Code   RO          708    i.GPIO_Init         stm32f0xx_gpio.o
    0x08002960   0x08002960   0x00000044   Code   RO          709    i.GPIO_PinAFConfig  stm32f0xx_gpio.o
    0x080029a4   0x080029a4   0x00000014   Code   RO          712    i.GPIO_ReadInputDataBit  stm32f0xx_gpio.o
    0x080029b8   0x080029b8   0x00000004   Code   RO          715    i.GPIO_ResetBits    stm32f0xx_gpio.o
    0x080029bc   0x080029bc   0x00000004   Code   RO          716    i.GPIO_SetBits      stm32f0xx_gpio.o
    0x080029c0   0x080029c0   0x00000018   Code   RO          717    i.GPIO_StructInit   stm32f0xx_gpio.o
    0x080029d8   0x080029d8   0x00000080   Code   RO         4961    i.GetReg            fm175xx.o
    0x08002a58   0x08002a58   0x0000001c   Code   RO         4962    i.GetReg_Ext        fm175xx.o
    0x08002a74   0x08002a74   0x000000d0   Code   RO         4124    i.Get_RealVaule     universal_init.o
    0x08002b44   0x08002b44   0x00000078   Code   RO         4455    i.Handle_RGB_Control  led_others.o
    0x08002bbc   0x08002bbc   0x00000174   Code   RO         4862    i.Handle_Temp_Ctr   handletemperature.o
    0x08002d30   0x08002d30   0x00000020   Code   RO         4127    i.Handle_Temp_Set   universal_init.o
    0x08002d50   0x08002d50   0x00000098   Code   RO         4128    i.Handle_Timer_Init  universal_init.o
    0x08002de8   0x08002de8   0x0000001e   Code   RO         4796    i.IAP_EraseSWFlash  iap.o
    0x08002e06   0x08002e06   0x00000002   PAD
    0x08002e08   0x08002e08   0x00000038   Code   RO         4797    i.IAP_Init          iap.o
    0x08002e40   0x08002e40   0x00000358   Code   RO         4798    i.IAP_ParseFrame    iap.o
    0x08003198   0x08003198   0x00000060   Code   RO         4799    i.IAP_Reset         iap.o
    0x080031f8   0x080031f8   0x00000034   Code   RO         4800    i.IAP_SaveFCtrlmap  iap.o
    0x0800322c   0x0800322c   0x000000c8   Code   RO         4801    i.IAP_decrypt       iap.o
    0x080032f4   0x080032f4   0x0000002c   Code   RO         4590    i.IIC_Init          iic.o
    0x08003320   0x08003320   0x0000003c   Code   RO         4592    i.IIC_PushFrame     iic.o
    0x0800335c   0x0800335c   0x000000c4   Code   RO         4595    i.IIC_Send_Byte     iic.o
    0x08003420   0x08003420   0x0000008c   Code   RO         4596    i.IIC_Send_Bytes    iic.o
    0x080034ac   0x080034ac   0x00000048   Code   RO         4597    i.IIC_Send_Command  iic.o
    0x080034f4   0x080034f4   0x0000008c   Code   RO         4598    i.IIC_Start         iic.o
    0x08003580   0x08003580   0x0000008c   Code   RO         4599    i.IIC_Stop          iic.o
    0x0800360c   0x0800360c   0x00000094   Code   RO         4600    i.IIC_Wait_Ack      iic.o
    0x080036a0   0x080036a0   0x00000054   Code   RO         4602    i.IicProcess        iic.o
    0x080036f4   0x080036f4   0x00000084   Code   RO         4000    i.InitAllPeripherals  system_config.o
    0x08003778   0x08003778   0x00000038   Code   RO         4418    i.Init_Show_Process  dis_task.o
    0x080037b0   0x080037b0   0x00000022   Code   RO         5131    i.JUDGE             reader_api.o
    0x080037d2   0x080037d2   0x00000002   PAD
    0x080037d4   0x080037d4   0x00000050   Code   RO         4456    i.LED_DMA_Refresh   led_others.o
    0x08003824   0x08003824   0x00000148   Code   RO         5132    i.LPCD_Read         reader_api.o
    0x0800396c   0x0800396c   0x00000040   Code   RO         4863    i.Linear_Table      handletemperature.o
    0x080039ac   0x080039ac   0x000000f4   Code   RO         5133    i.Lpcd_Calibrate_Driver  reader_api.o
    0x08003aa0   0x08003aa0   0x0000007c   Code   RO         5134    i.Lpcd_Calibrate_Reference  reader_api.o
    0x08003b1c   0x08003b1c   0x00000018   Code   RO         5135    i.Lpcd_Calibration_Backup  reader_api.o
    0x08003b34   0x08003b34   0x00000034   Code   RO         5136    i.Lpcd_Calibration_Event  reader_api.o
    0x08003b68   0x08003b68   0x00000050   Code   RO         5137    i.Lpcd_Calibration_Restore  reader_api.o
    0x08003bb8   0x08003bb8   0x0000004a   Code   RO         5138    i.Lpcd_Get_Calibration_Value  reader_api.o
    0x08003c02   0x08003c02   0x00000010   Code   RO         5139    i.Lpcd_Get_IRQ      reader_api.o
    0x08003c12   0x08003c12   0x00000030   Code   RO         5140    i.Lpcd_Get_Value    reader_api.o
    0x08003c42   0x08003c42   0x0000000e   Code   RO         5141    i.Lpcd_IRQ_Event    reader_api.o
    0x08003c50   0x08003c50   0x0000002a   Code   RO         5142    i.Lpcd_Init_Register  reader_api.o
    0x08003c7a   0x08003c7a   0x00000016   Code   RO         5143    i.Lpcd_Reset_Status  reader_api.o
    0x08003c90   0x08003c90   0x0000005e   Code   RO         5144    i.Lpcd_Set_Driver   reader_api.o
    0x08003cee   0x08003cee   0x00000014   Code   RO         5145    i.Lpcd_Set_Gain     reader_api.o
    0x08003d02   0x08003d02   0x0000001c   Code   RO         5146    i.Lpcd_Set_IE       reader_api.o
    0x08003d1e   0x08003d1e   0x00000014   Code   RO         5147    i.Lpcd_Set_IRQ_pin  reader_api.o
    0x08003d32   0x08003d32   0x00000022   Code   RO         5148    i.Lpcd_Set_Mode     reader_api.o
    0x08003d54   0x08003d54   0x0000002a   Code   RO         5149    i.Lpcd_Set_Reference  reader_api.o
    0x08003d7e   0x08003d7e   0x00000038   Code   RO         5150    i.Lpcd_Set_Threshold  reader_api.o
    0x08003db6   0x08003db6   0x00000002   PAD
    0x08003db8   0x08003db8   0x000000b8   Code   RO         5151    i.Lpcd_Set_Timer    reader_api.o
    0x08003e70   0x08003e70   0x0000003a   Code   RO         5152    i.Lpcd_WaitFor_Irq  reader_api.o
    0x08003eaa   0x08003eaa   0x000000b6   Code   RO         5051    i.Mifare_Auth       mifare.o
    0x08003f60   0x08003f60   0x00000062   Code   RO         5054    i.Mifare_Blockread  mifare.o
    0x08003fc2   0x08003fc2   0x00000098   Code   RO         5056    i.Mifare_Blockwrite  mifare.o
    0x0800405a   0x0800405a   0x00000032   Code   RO         4963    i.ModifyReg         fm175xx.o
    0x0800408c   0x0800408c   0x00000032   Code   RO         4964    i.ModifyReg_Ext     fm175xx.o
    0x080040be   0x080040be   0x00000002   PAD
    0x080040c0   0x080040c0   0x00000088   Code   RO         4689    i.NFC_Card_ID_Pro   control_task.o
    0x08004148   0x08004148   0x00000048   Code   RO         4864    i.NTC_GET_Temperature  handletemperature.o
    0x08004190   0x08004190   0x00000032   Code   RO         4001    i.NVIC_Configuration  system_config.o
    0x080041c2   0x080041c2   0x00000002   PAD
    0x080041c4   0x080041c4   0x00000070   Code   RO         1121    i.NVIC_Init         stm32f0xx_misc.o
    0x08004234   0x08004234   0x00000030   Code   RO         4690    i.Normal_Tasks_Process  control_task.o
    0x08004264   0x08004264   0x0000004c   Code   RO         4691    i.Normal_Tasks_Remarks  control_task.o
    0x080042b0   0x080042b0   0x000001cc   Code   RO         4254    i.ParseFrame        parseframe.o
    0x0800447c   0x0800447c   0x0000009e   Code   RO         4002    i.Peripherals_Clock_Init  system_config.o
    0x0800451a   0x0800451a   0x00000002   PAD
    0x0800451c   0x0800451c   0x00000070   Code   RO         4457    i.PowerON_RGB       led_others.o
    0x0800458c   0x0800458c   0x00000022   Code   RO         4255    i.PushMiniFrame     parseframe.o
    0x080045ae   0x080045ae   0x00000002   PAD
    0x080045b0   0x080045b0   0x00000090   Code   RO         4901    i.Query_Send_Data_Pro  stateupdate.o
    0x08004640   0x08004640   0x00000038   Code   RO         1227    i.RCC_ADCCLKConfig  stm32f0xx_rcc.o
    0x08004678   0x08004678   0x00000020   Code   RO         1228    i.RCC_AHBPeriphClockCmd  stm32f0xx_rcc.o
    0x08004698   0x08004698   0x00000020   Code   RO         1230    i.RCC_APB1PeriphClockCmd  stm32f0xx_rcc.o
    0x080046b8   0x080046b8   0x00000020   Code   RO         1231    i.RCC_APB1PeriphResetCmd  stm32f0xx_rcc.o
    0x080046d8   0x080046d8   0x00000020   Code   RO         1232    i.RCC_APB2PeriphClockCmd  stm32f0xx_rcc.o
    0x080046f8   0x080046f8   0x00000020   Code   RO         1233    i.RCC_APB2PeriphResetCmd  stm32f0xx_rcc.o
    0x08004718   0x08004718   0x000001f0   Code   RO         1242    i.RCC_GetClocksFreq  stm32f0xx_rcc.o
    0x08004908   0x08004908   0x000000fc   Code   RO         4458    i.RGB_Bit_Set       led_others.o
    0x08004a04   0x08004a04   0x00000038   Code   RO         4459    i.RGB_Buff_Init     led_others.o
    0x08004a3c   0x08004a3c   0x00000100   Code   RO         4460    i.RGB_Time_Init     led_others.o
    0x08004b3c   0x08004b3c   0x00000048   Code   RO         4003    i.ReadUniqueID      system_config.o
    0x08004b84   0x08004b84   0x000000c0   Code   RO         5154    i.ReaderA_AntiColl  reader_api.o
    0x08004c44   0x08004c44   0x00000080   Code   RO         5155    i.ReaderA_CardActivate  reader_api.o
    0x08004cc4   0x08004cc4   0x000000ac   Code   RO         5158    i.ReaderA_Select    reader_api.o
    0x08004d70   0x08004d70   0x00000060   Code   RO         5159    i.ReaderA_Wakeup    reader_api.o
    0x08004dd0   0x08004dd0   0x000000d0   Code   RO         5435    i.SPI1_Configuration  spi.o
    0x08004ea0   0x08004ea0   0x0000001c   Code   RO         1825    i.SPI_Cmd           stm32f0xx_spi.o
    0x08004ebc   0x08004ebc   0x00000006   Code   RO         1831    i.SPI_I2S_ClearFlag  stm32f0xx_spi.o
    0x08004ec2   0x08004ec2   0x00000014   Code   RO         1834    i.SPI_I2S_GetFlagStatus  stm32f0xx_spi.o
    0x08004ed6   0x08004ed6   0x00000002   PAD
    0x08004ed8   0x08004ed8   0x00000058   Code   RO         1839    i.SPI_Init          stm32f0xx_spi.o
    0x08004f30   0x08004f30   0x00000094   Code   RO         4965    i.SPI_Read_FIFO     fm175xx.o
    0x08004fc4   0x08004fc4   0x0000000c   Code   RO         1843    i.SPI_ReceiveData8  stm32f0xx_spi.o
    0x08004fd0   0x08004fd0   0x00000014   Code   RO         1844    i.SPI_RxFIFOThresholdConfig  stm32f0xx_spi.o
    0x08004fe4   0x08004fe4   0x0000000a   Code   RO         1846    i.SPI_SendData8     stm32f0xx_spi.o
    0x08004fee   0x08004fee   0x00000002   PAD
    0x08004ff0   0x08004ff0   0x00000070   Code   RO         4966    i.SPI_Write_FIFO    fm175xx.o
    0x08005060   0x08005060   0x00000002   Code   RO         5704    i.SVC_Handler       port.o
    0x08005062   0x08005062   0x00000002   PAD
    0x08005064   0x08005064   0x00000040   Code   RO         2023    i.SYSCFG_EXTILineConfig  stm32f0xx_syscfg.o
    0x080050a4   0x080050a4   0x0000001c   Code   RO         2026    i.SYSCFG_MemoryRemapConfig  stm32f0xx_syscfg.o
    0x080050c0   0x080050c0   0x00000104   Code   RO         4004    i.SaveFDatamap      system_config.o
    0x080051c4   0x080051c4   0x0000001c   Code   RO         4005    i.SetErrorByte      system_config.o
    0x080051e0   0x080051e0   0x00000020   Code   RO         5164    i.SetReceiveCRC     reader_api.o
    0x08005200   0x08005200   0x00000070   Code   RO         4967    i.SetReg            fm175xx.o
    0x08005270   0x08005270   0x00000020   Code   RO         4968    i.SetReg_Ext        fm175xx.o
    0x08005290   0x08005290   0x0000005c   Code   RO         5165    i.SetRf             reader_api.o
    0x080052ec   0x080052ec   0x00000020   Code   RO         5166    i.SetSendCRC        reader_api.o
    0x0800530c   0x0800530c   0x0000006c   Code   RO         5167    i.SetTimeOut        reader_api.o
    0x08005378   0x08005378   0x00000024   Code   RO         1123    i.SysTick_CLKSourceConfig  stm32f0xx_misc.o
    0x0800539c   0x0800539c   0x00000024   Code   RO         5705    i.SysTick_Handler   port.o
    0x080053c0   0x080053c0   0x000000d8   Code   RO         4006    i.SystemCoreClockConfigure  system_config.o
    0x08005498   0x08005498   0x000000b0   Code   RO         3677    i.SystemCoreClockUpdate  system_stm32f0xx.o
    0x08005548   0x08005548   0x00000074   Code   RO         3678    i.SystemInit        system_stm32f0xx.o
    0x080055bc   0x080055bc   0x0000001c   Code   RO         4129    i.TIM2_IRQHandler   universal_init.o
    0x080055d8   0x080055d8   0x0000001c   Code   RO         2085    i.TIM_ARRPreloadConfig  stm32f0xx_tim.o
    0x080055f4   0x080055f4   0x00000006   Code   RO         2091    i.TIM_ClearFlag     stm32f0xx_tim.o
    0x080055fa   0x080055fa   0x00000006   Code   RO         2092    i.TIM_ClearITPendingBit  stm32f0xx_tim.o
    0x08005600   0x08005600   0x0000001c   Code   RO         2097    i.TIM_Cmd           stm32f0xx_tim.o
    0x0800561c   0x0800561c   0x00000022   Code   RO         2099    i.TIM_CtrlPWMOutputs  stm32f0xx_tim.o
    0x0800563e   0x0800563e   0x00000014   Code   RO         2100    i.TIM_DMACmd        stm32f0xx_tim.o
    0x08005652   0x08005652   0x00000002   PAD
    0x08005654   0x08005654   0x00000104   Code   RO         2102    i.TIM_DeInit        stm32f0xx_tim.o
    0x08005758   0x08005758   0x00000026   Code   RO         2118    i.TIM_GetITStatus   stm32f0xx_tim.o
    0x0800577e   0x0800577e   0x00000014   Code   RO         2122    i.TIM_ITConfig      stm32f0xx_tim.o
    0x08005792   0x08005792   0x00000002   PAD
    0x08005794   0x08005794   0x00000094   Code   RO         2126    i.TIM_OC1Init       stm32f0xx_tim.o
    0x08005828   0x08005828   0x00000018   Code   RO         2129    i.TIM_OC1PreloadConfig  stm32f0xx_tim.o
    0x08005840   0x08005840   0x000000ac   Code   RO         2131    i.TIM_OC2Init       stm32f0xx_tim.o
    0x080058ec   0x080058ec   0x00000018   Code   RO         2134    i.TIM_OC2PreloadConfig  stm32f0xx_tim.o
    0x08005904   0x08005904   0x00000098   Code   RO         2136    i.TIM_OC3Init       stm32f0xx_tim.o
    0x0800599c   0x0800599c   0x00000018   Code   RO         2139    i.TIM_OC3PreloadConfig  stm32f0xx_tim.o
    0x080059b4   0x080059b4   0x00000014   Code   RO         2144    i.TIM_OCStructInit  stm32f0xx_tim.o
    0x080059c8   0x080059c8   0x00000004   Code   RO         2160    i.TIM_SetCompare1   stm32f0xx_tim.o
    0x080059cc   0x080059cc   0x00000004   Code   RO         2161    i.TIM_SetCompare2   stm32f0xx_tim.o
    0x080059d0   0x080059d0   0x00000004   Code   RO         2162    i.TIM_SetCompare3   stm32f0xx_tim.o
    0x080059d4   0x080059d4   0x0000007c   Code   RO         2170    i.TIM_TimeBaseInit  stm32f0xx_tim.o
    0x08005a50   0x08005a50   0x00000012   Code   RO         2171    i.TIM_TimeBaseStructInit  stm32f0xx_tim.o
    0x08005a62   0x08005a62   0x00000002   PAD
    0x08005a64   0x08005a64   0x00000134   Code   RO         5168    i.TYPE_A_EVENT      reader_api.o
    0x08005b98   0x08005b98   0x00000038   Code   RO         4130    i.Timer2Init        universal_init.o
    0x08005bd0   0x08005bd0   0x0000008c   Code   RO         4329    i.UART3_CheckReceive  uart_3.o
    0x08005c5c   0x08005c5c   0x00000060   Code   RO         4330    i.UART3_CheckSend   uart_3.o
    0x08005cbc   0x08005cbc   0x000000d4   Code   RO         4331    i.UART3_DMAConfiguration  uart_3.o
    0x08005d90   0x08005d90   0x0000002c   Code   RO         4332    i.UART3_DmaSend     uart_3.o
    0x08005dbc   0x08005dbc   0x0000000c   Code   RO         4333    i.UART3_InitVariables  uart_3.o
    0x08005dc8   0x08005dc8   0x00000090   Code   RO         4334    i.UART3_Int         uart_3.o
    0x08005e58   0x08005e58   0x00000118   Code   RO         4335    i.UART3_ParseData   uart_3.o
    0x08005f70   0x08005f70   0x000000a4   Code   RO         4337    i.UART3_PushFrame   uart_3.o
    0x08006014   0x08006014   0x00000040   Code   RO         4338    i.UART3_SetPinToRx  uart_3.o
    0x08006054   0x08006054   0x00000040   Code   RO         4339    i.UART3_SetPinToTx  uart_3.o
    0x08006094   0x08006094   0x00000018   Code   RO         3375    i.USART_Cmd         stm32f0xx_usart.o
    0x080060ac   0x080060ac   0x00000014   Code   RO         3378    i.USART_DMACmd      stm32f0xx_usart.o
    0x080060c0   0x080060c0   0x0000007c   Code   RO         3381    i.USART_DeInit      stm32f0xx_usart.o
    0x0800613c   0x0800613c   0x00000018   Code   RO         3385    i.USART_HalfDuplexCmd  stm32f0xx_usart.o
    0x08006154   0x08006154   0x000000e8   Code   RO         3387    i.USART_Init        stm32f0xx_usart.o
    0x0800623c   0x0800623c   0x0000006c   Code   RO         4007    i.Variables_Init    system_config.o
    0x080062a8   0x080062a8   0x00000174   Code   RO         4692    i.Wireless_Power_Ctr_Handler  control_task.o
    0x0800641c   0x0800641c   0x0000001c   Code   RO         4678    i.__ARM_common_switch8  iic.o
    0x08006438   0x08006438   0x0000000e   Code   RO         6630    i.__scatterload_copy  mc_p.l(handlers.o)
    0x08006446   0x08006446   0x00000002   Code   RO         6631    i.__scatterload_null  mc_p.l(handlers.o)
    0x08006448   0x08006448   0x0000000e   Code   RO         6632    i.__scatterload_zeroinit  mc_p.l(handlers.o)
    0x08006456   0x08006456   0x00000002   PAD
    0x08006458   0x08006458   0x0000002c   Code   RO         5169    i.check_NFC_key     reader_api.o
    0x08006484   0x08006484   0x00000054   Code   RO         4008    i.delay_init        system_config.o
    0x080064d8   0x080064d8   0x00000048   Code   RO         4010    i.delay_us          system_config.o
    0x08006520   0x08006520   0x00000040   Code   RO         6020    i.eTaskConfirmSleepModeStatus  tasks.o
    0x08006560   0x08006560   0x00000050   Code   RO         4205    i.gpioGetInput      gpio.o
    0x080065b0   0x080065b0   0x00000028   Code   RO         4207    i.gpioInitialize    gpio.o
    0x080065d8   0x080065d8   0x0000003c   Code   RO         4208    i.gpioSetOutput     gpio.o
    0x08006614   0x08006614   0x00000038   Code   RO         4969    i.mDelay            fm175xx.o
    0x0800664c   0x0800664c   0x00000044   Code   RO         3713    i.main              main.o
    0x08006690   0x08006690   0x00000040   Code   RO         4902    i.powerCtrl         stateupdate.o
    0x080066d0   0x080066d0   0x00000088   Code   RO         6023    i.prvAddCurrentTaskToDelayedList  tasks.o
    0x08006758   0x08006758   0x000000ac   Code   RO         6024    i.prvAddNewTaskToReadyList  tasks.o
    0x08006804   0x08006804   0x00000050   Code   RO         6438    i.prvCheckForValidListAndQueue  timers.o
    0x08006854   0x08006854   0x00000048   Code   RO         6025    i.prvCheckTasksWaitingTermination  tasks.o
    0x0800689c   0x0800689c   0x0000002c   Code   RO         5780    i.prvCopyDataFromQueue  queue.o
    0x080068c8   0x080068c8   0x00000080   Code   RO         5781    i.prvCopyDataToQueue  queue.o
    0x08006948   0x08006948   0x00000012   Code   RO         6026    i.prvDeleteTCB      tasks.o
    0x0800695a   0x0800695a   0x00000002   PAD
    0x0800695c   0x0800695c   0x00000050   Code   RO         6027    i.prvGetExpectedIdleTime  tasks.o
    0x080069ac   0x080069ac   0x0000002c   Code   RO         6439    i.prvGetNextExpireTime  timers.o
    0x080069d8   0x080069d8   0x0000007c   Code   RO         5648    i.prvHeapInit       heap_4.o
    0x08006a54   0x08006a54   0x00000050   Code   RO         6028    i.prvIdleTask       tasks.o
    0x08006aa4   0x08006aa4   0x00000030   Code   RO         5784    i.prvInitialiseNewQueue  queue.o
    0x08006ad4   0x08006ad4   0x000000c0   Code   RO         6029    i.prvInitialiseNewTask  tasks.o
    0x08006b94   0x08006b94   0x00000064   Code   RO         6030    i.prvInitialiseTaskLists  tasks.o
    0x08006bf8   0x08006bf8   0x00000068   Code   RO         5649    i.prvInsertBlockIntoFreeList  heap_4.o
    0x08006c60   0x08006c60   0x00000054   Code   RO         6441    i.prvInsertTimerInActiveList  timers.o
    0x08006cb4   0x08006cb4   0x0000001c   Code   RO         5785    i.prvIsQueueEmpty   queue.o
    0x08006cd0   0x08006cd0   0x0000001e   Code   RO         5786    i.prvIsQueueFull    queue.o
    0x08006cee   0x08006cee   0x00000076   Code   RO         5787    i.prvNotifyQueueSetContainer  queue.o
    0x08006d64   0x08006d64   0x00000068   Code   RO         6442    i.prvProcessExpiredTimer  timers.o
    0x08006dcc   0x08006dcc   0x00000144   Code   RO         6443    i.prvProcessReceivedCommands  timers.o
    0x08006f10   0x08006f10   0x0000006c   Code   RO         6444    i.prvProcessTimerOrBlockTask  timers.o
    0x08006f7c   0x08006f7c   0x00000038   Code   RO         6032    i.prvResetNextTaskUnblockTime  tasks.o
    0x08006fb4   0x08006fb4   0x0000002c   Code   RO         6445    i.prvSampleTimeNow  timers.o
    0x08006fe0   0x08006fe0   0x00000094   Code   RO         6446    i.prvSwitchTimerLists  timers.o
    0x08007074   0x08007074   0x00000024   Code   RO         5706    i.prvTaskExitError  port.o
    0x08007098   0x08007098   0x0000001a   Code   RO         6447    i.prvTimerTask      timers.o
    0x080070b2   0x080070b2   0x000000a4   Code   RO         5788    i.prvUnlockQueue    queue.o
    0x08007156   0x08007156   0x00000002   PAD
    0x08007158   0x08007158   0x0000012c   Code   RO         5650    i.pvPortMalloc      heap_4.o
    0x08007284   0x08007284   0x00000020   Code   RO         5707    i.pxPortInitialiseStack  port.o
    0x080072a4   0x080072a4   0x000000a4   Code   RO         3714    i.start_task        main.o
    0x08007348   0x08007348   0x00000024   Code   RO         4934    i.turnLightProcess  turnlightprocess.o
    0x0800736c   0x0800736c   0x00000016   Code   RO         5170    i.uDelay            reader_api.o
    0x08007382   0x08007382   0x00000028   Code   RO         5612    i.uxListRemove      list.o
    0x080073aa   0x080073aa   0x0000001a   Code   RO         5613    i.vListInitialise   list.o
    0x080073c4   0x080073c4   0x00000006   Code   RO         5614    i.vListInitialiseItem  list.o
    0x080073ca   0x080073ca   0x00000036   Code   RO         5615    i.vListInsert       list.o
    0x08007400   0x08007400   0x00000018   Code   RO         5616    i.vListInsertEnd    list.o
    0x08007418   0x08007418   0x0000001c   Code   RO         5709    i.vPortEnterCritical  port.o
    0x08007434   0x08007434   0x00000028   Code   RO         5710    i.vPortExitCritical  port.o
    0x0800745c   0x0800745c   0x00000090   Code   RO         5651    i.vPortFree         heap_4.o
    0x080074ec   0x080074ec   0x00000060   Code   RO         5711    i.vPortSetupTimerInterrupt  port.o
    0x0800754c   0x0800754c   0x00000144   Code   RO         5712    i.vPortSuppressTicksAndSleep  port.o
    0x08007690   0x08007690   0x00000018   Code   RO         5713    i.vPortYield        port.o
    0x080076a8   0x080076a8   0x0000004c   Code   RO         5796    i.vQueueWaitForMessageRestricted  queue.o
    0x080076f4   0x080076f4   0x00000044   Code   RO         6047    i.vTaskDelay        tasks.o
    0x08007738   0x08007738   0x000000b4   Code   RO         6049    i.vTaskDelete       tasks.o
    0x080077ec   0x080077ec   0x00000018   Code   RO         6052    i.vTaskInternalSetTimeOutState  tasks.o
    0x08007804   0x08007804   0x0000000c   Code   RO         6053    i.vTaskMissedYield  tasks.o
    0x08007810   0x08007810   0x0000002c   Code   RO         6055    i.vTaskPlaceOnEventList  tasks.o
    0x0800783c   0x0800783c   0x00000034   Code   RO         6056    i.vTaskPlaceOnEventListRestricted  tasks.o
    0x08007870   0x08007870   0x00000078   Code   RO         6064    i.vTaskStartScheduler  tasks.o
    0x080078e8   0x080078e8   0x00000034   Code   RO         6065    i.vTaskStepTick     tasks.o
    0x0800791c   0x0800791c   0x00000010   Code   RO         6067    i.vTaskSuspendAll   tasks.o
    0x0800792c   0x0800792c   0x00000080   Code   RO         6068    i.vTaskSwitchContext  tasks.o
    0x080079ac   0x080079ac   0x00000038   Code   RO         5714    i.xPortStartScheduler  port.o
    0x080079e4   0x080079e4   0x0000004c   Code   RO         5801    i.xQueueGenericCreate  queue.o
    0x08007a30   0x08007a30   0x00000082   Code   RO         5802    i.xQueueGenericReset  queue.o
    0x08007ab2   0x08007ab2   0x0000017e   Code   RO         5803    i.xQueueGenericSend  queue.o
    0x08007c30   0x08007c30   0x000000e4   Code   RO         5804    i.xQueueGenericSendFromISR  queue.o
    0x08007d14   0x08007d14   0x00000138   Code   RO         5813    i.xQueueReceive     queue.o
    0x08007e4c   0x08007e4c   0x00000090   Code   RO         6071    i.xTaskCheckForTimeOut  tasks.o
    0x08007edc   0x08007edc   0x0000005c   Code   RO         6072    i.xTaskCreate       tasks.o
    0x08007f38   0x08007f38   0x00000024   Code   RO         6078    i.xTaskGetSchedulerState  tasks.o
    0x08007f5c   0x08007f5c   0x0000000c   Code   RO         6079    i.xTaskGetTickCount  tasks.o
    0x08007f68   0x08007f68   0x0000013c   Code   RO         6081    i.xTaskIncrementTick  tasks.o
    0x080080a4   0x080080a4   0x00000088   Code   RO         6084    i.xTaskPriorityDisinherit  tasks.o
    0x0800812c   0x0800812c   0x0000008c   Code   RO         6086    i.xTaskRemoveFromEventList  tasks.o
    0x080081b8   0x080081b8   0x000000f0   Code   RO         6087    i.xTaskResumeAll    tasks.o
    0x080082a8   0x080082a8   0x00000048   Code   RO         6455    i.xTimerCreateTimerTask  timers.o
    0x080082f0   0x080082f0   0x00000074   Code   RO         6456    i.xTimerGenericCommand  timers.o
    0x08008364   0x08008364   0x0000001f   Data   RO         5172    .constdata          reader_api.o
    0x08008383   0x08008383   0x00000001   PAD
    0x08008384   0x08008384   0x00000020   Data   RO         6628    Region$$Table       anon$$obj.o


    Execution Region RW_IRAM1 (Exec base: 0x200000c0, Load base: 0x080083a4, Size: 0x00002bf8, Max: 0x00004000, ABSOLUTE, COMPRESSED[0x00000128])

    Exec Addr    Load Addr    Size         Type   Attr      Idx    E Section Name        Object

    0x200000c0   COMPRESSED   0x00000008   Data   RW          535    .data               stm32f0xx_flash.o
    0x200000c8   COMPRESSED   0x00000010   Data   RW         1268    .data               stm32f0xx_rcc.o
    0x200000d8   COMPRESSED   0x00000014   Data   RW         3679    .data               system_stm32f0xx.o
    0x200000ec   COMPRESSED   0x00000010   Data   RW         3716    .data               main.o
    0x200000fc   COMPRESSED   0x00000005   Data   RW         4012    .data               system_config.o
    0x20000101   COMPRESSED   0x00000003   PAD
    0x20000104   COMPRESSED   0x000000e0   Data   RW         4211    .data               gpio.o
    0x200001e4   COMPRESSED   0x00000005   Data   RW         4296    .data               user_com_task.o
    0x200001e9   COMPRESSED   0x00000003   PAD
    0x200001ec   COMPRESSED   0x00000014   Data   RW         4342    .data               uart_3.o
    0x20000200   COMPRESSED   0x00000005   Data   RW         4420    .data               dis_task.o
    0x20000205   COMPRESSED   0x00000001   PAD
    0x20000206   COMPRESSED   0x0000000b   Data   RW         4463    .data               led_others.o
    0x20000211   COMPRESSED   0x00000001   PAD
    0x20000212   COMPRESSED   0x0000000a   Data   RW         4529    .data               ambient_light_app.o
    0x2000021c   COMPRESSED   0x00000007   Data   RW         4605    .data               iic.o
    0x20000223   COMPRESSED   0x00000001   PAD
    0x20000224   COMPRESSED   0x00000062   Data   RW         4694    .data               control_task.o
    0x20000286   COMPRESSED   0x00000002   PAD
    0x20000288   COMPRESSED   0x0000001c   Data   RW         4806    .data               iap.o
    0x200002a4   COMPRESSED   0x0000006c   Data   RW         4866    .data               handletemperature.o
    0x20000310   COMPRESSED   0x00000004   Data   RW         4904    .data               stateupdate.o
    0x20000314   COMPRESSED   0x000000e3   Data   RW         5062    .data               mifare.o
    0x200003f7   COMPRESSED   0x00000001   PAD
    0x200003f8   COMPRESSED   0x00000014   Data   RW         5173    .data               reader_api.o
    0x2000040c   COMPRESSED   0x0000000c   Data   RW         5469    .data               variable.o
    0x20000418   COMPRESSED   0x00000020   Data   RW         5657    .data               heap_4.o
    0x20000438   COMPRESSED   0x00000010   Data   RW         5715    .data               port.o
    0x20000448   COMPRESSED   0x0000003c   Data   RW         6090    .data               tasks.o
    0x20000484   COMPRESSED   0x00000014   Data   RW         6464    .data               timers.o
    0x20000498        -       0x00000060   Zero   RW         4131    .bss                universal_init.o
    0x200004f8        -       0x000003b6   Zero   RW         4340    .bss                uart_3.o
    0x200008ae        -       0x00000058   Zero   RW         4461    .bss                led_others.o
    0x20000906   COMPRESSED   0x00000002   PAD
    0x20000908        -       0x00000028   Zero   RW         4527    .bss                ambient_light_app.o
    0x20000930        -       0x00000018   Zero   RW         4603    .bss                iic.o
    0x20000948        -       0x000000fc   Zero   RW         4804    .bss                iap.o
    0x20000a44        -       0x00000020   Zero   RW         5060    .bss                mifare.o
    0x20000a64        -       0x00000056   Zero   RW         5171    .bss                reader_api.o
    0x20000aba        -       0x000000a6   Zero   RW         5467    .bss                variable.o
    0x20000b60        -       0x00001400   Zero   RW         5656    .bss                heap_4.o
    0x20001f60        -       0x0000012c   Zero   RW         6089    .bss                tasks.o
    0x2000208c        -       0x00000028   Zero   RW         6463    .bss                timers.o
    0x200020b4   COMPRESSED   0x00000004   PAD
    0x200020b8        -       0x00000c00   Zero   RW            1    STACK               startup_stm32f072.o


==============================================================================

Image component sizes


      Code (inc. data)   RO Data    RW Data    ZI Data      Debug   Object Name

       860         52          0         10         40       6560   ambient_light_app.o
       998         94          0         98          0       5207   control_task.o
       548         40          0          5          0       2022   dis_task.o
       296          0          0          0          0       4045   flash.o
       852         32          0          0          0       7089   fm175xx.o
       180         18          0        224          0       2344   gpio.o
       654         20          0        108          0       4219   handletemperature.o
       672         72          0         32       5120       4319   heap_4.o
      1290        114         16         28        252       6331   iap.o
      1052         66          0          7         24       7360   iic.o
      1054         76          0         11         88       5615   led_others.o
       150          0          0          0          0       3138   list.o
       232         90          0         16          0     229906   main.o
       432          0          0        227         32       3711   mifare.o
       658         14          0          0          0       3542   parseframe.o
       794         92          0         16          0       8140   port.o
      1764          0          0          0          0      14955   queue.o
      3572        176         31         20         86      26213   reader_api.o
       308         22          0          0          0       1620   spi.o
        28          8        192          0       3072        716   startup_stm32f072.o
       276         28          0          4          0       1567   stateupdate.o
       298          8          0          0          0       6330   stm32f0xx_adc.o
         0          0          0          0          0     228076   stm32f0xx_crc.o
       410         36          0          0          0       6125   stm32f0xx_dma.o
       176         16          0          0          0       2116   stm32f0xx_exti.o
       424         46          0          8          0       4821   stm32f0xx_flash.o
       264          4          0          0          0       4037   stm32f0xx_gpio.o
       148         10          0          0          0       1490   stm32f0xx_misc.o
       712         52          0         16          0       5283   stm32f0xx_rcc.o
       184         20          0          0          0       4576   stm32f0xx_spi.o
        92          8          0          0          0       1223   stm32f0xx_syscfg.o
      1158        170          0          0          0      13121   stm32f0xx_tim.o
       424         34          0          0          0       3865   stm32f0xx_usart.o
      1208        124          0          5          0      10260   system_config.o
       292         34          0         20          0       1889   system_stm32f0xx.o
      2782        422          0         60        300      24862   tasks.o
      1150        102          0         20         40      11747   timers.o
        36          4          0          0          0       1131   turnlightprocess.o
      1304        146          0         20        950       7757   uart_3.o
      1108         82          0          0         96       6126   universal_init.o
       120         18          0          5          0       6701   user_com_task.o
         0          0          0         12        166       4966   variable.o

    ----------------------------------------------------------------------
     28996       2350        272        984      10272     705121   Object Totals
         0          0         32          0          0          0   (incl. Generated)
        36          0          1         12          6          0   (incl. Padding)

    ----------------------------------------------------------------------

      Code (inc. data)   RO Data    RW Data    ZI Data      Debug   Library Member Name

        86          0          0          0          0          0   __dczerorl2.o
         0          0          0          0          0          0   entry.o
         0          0          0          0          0          0   entry10a.o
         0          0          0          0          0          0   entry11a.o
         4          0          0          0          0          0   entry12b.o
         8          4          0          0          0          0   entry2.o
         4          0          0          0          0          0   entry5.o
         0          0          0          0          0          0   entry7b.o
         0          0          0          0          0          0   entry8b.o
         8          4          0          0          0          0   entry9a.o
        30          0          0          0          0          0   handlers.o
        40          0          0          0          0         72   idiv.o
        36          8          0          0          0         68   init.o
        36          0          0          0          0         60   memcpya.o
        36          0          0          0          0        100   memseta.o
        44          0          0          0          0         72   uidiv.o

    ----------------------------------------------------------------------
       336         16          0          0          0        372   Library Totals
         4          0          0          0          0          0   (incl. Padding)

    ----------------------------------------------------------------------

      Code (inc. data)   RO Data    RW Data    ZI Data      Debug   Library Name

       332         16          0          0          0        372   mc_p.l

    ----------------------------------------------------------------------
       336         16          0          0          0        372   Library Totals

    ----------------------------------------------------------------------

==============================================================================


      Code (inc. data)   RO Data    RW Data    ZI Data      Debug   

     29332       2366        272        984      10272     692245   Grand Totals
     29332       2366        272        296      10272     692245   ELF Image Totals (compressed)
     29332       2366        272        296          0          0   ROM Totals

==============================================================================

    Total RO  Size (Code + RO Data)                29604 (  28.91kB)
    Total RW  Size (RW Data + ZI Data)             11256 (  10.99kB)
    Total ROM Size (Code + RO Data + RW Data)      29900 (  29.20kB)

==============================================================================

